# clang++ -ffunction-sections -g2 -gdwarf-5
# Manually modified to use ranges like what generates sometimes -fbasic-block-sections=all
# int doStuff(int val) {
#   if (val)
#     ++val;
#   return val;
# }
#
# int main(int argc, const char** argv) {
#     return  doStuff(argc);
# }
	.text
	.file	"main.cpp"
	.section	.text._Z7doStuffi,"ax",@progbits
	.globl	_Z7doStuffi                     # -- Begin function _Z7doStuffi
	.p2align	4, 0x90
	.type	_Z7doStuffi,@function
_Z7doStuffi:                            # @_Z7doStuffi
.Lfunc_begin0:
	.file	0 "/subprogramRanges" "main.cpp" md5 0x45fd34ef778739dca24be206894f1d15
	.loc	0 1 0                           # main.cpp:1:0
	.cfi_startproc
# %bb.0:                                # %entry
	pushq	%rbp
	.cfi_def_cfa_offset 16
	.cfi_offset %rbp, -16
	movq	%rsp, %rbp
	.cfi_def_cfa_register %rbp
	movl	%edi, -4(%rbp)
.Ltmp0:
	.loc	0 2 7 prologue_end              # main.cpp:2:7
	cmpl	$0, -4(%rbp)
.Ltmp1:
	.loc	0 2 7 is_stmt 0                 # main.cpp:2:7
	je	.LBB0_2
# %bb.1:                                # %if.then
.Ltmp2:
	.loc	0 3 5 is_stmt 1                 # main.cpp:3:5
	movl	-4(%rbp), %eax
	addl	$1, %eax
	movl	%eax, -4(%rbp)
.Ltmp3:
.LBB0_2:                                # %if.end
	.loc	0 4 10                          # main.cpp:4:10
	movl	-4(%rbp), %eax
	.loc	0 4 3 epilogue_begin is_stmt 0  # main.cpp:4:3
	popq	%rbp
	.cfi_def_cfa %rsp, 8
	retq
.Ltmp4:
.Lfunc_end0:
	.size	_Z7doStuffi, .Lfunc_end0-_Z7doStuffi
	.cfi_endproc
                                        # -- End function
	.section	.text.main,"ax",@progbits
	.globl	main                            # -- Begin function main
	.p2align	4, 0x90
	.type	main,@function
main:                                   # @main
.Lfunc_begin1:
	.loc	0 7 0 is_stmt 1                 # main.cpp:7:0
	.cfi_startproc
# %bb.0:                                # %entry
	pushq	%rbp
	.cfi_def_cfa_offset 16
	.cfi_offset %rbp, -16
	movq	%rsp, %rbp
	.cfi_def_cfa_register %rbp
	subq	$16, %rsp
	movl	$0, -4(%rbp)
	movl	%edi, -8(%rbp)
	movq	%rsi, -16(%rbp)
.Ltmp5:
	.loc	0 8 21 prologue_end             # main.cpp:8:21
	movl	-8(%rbp), %edi
	.loc	0 8 13 is_stmt 0                # main.cpp:8:13
	callq	_Z7doStuffi
	.loc	0 8 5 epilogue_begin            # main.cpp:8:5
	addq	$16, %rsp
	popq	%rbp
	.cfi_def_cfa %rsp, 8
	retq
.Ltmp6:
.Lfunc_end1:
	.size	main, .Lfunc_end1-main
	.cfi_endproc
                                        # -- End function
	.section	".note.GNU-stack","",@progbits
	.addrsig
	.addrsig_sym _Z7doStuffi