	.text
	.file	"main.cpp"
	.section	.text._Z3usePiS_,"ax",@progbits
	.globl	_Z3usePiS_                      # -- Begin function _Z3usePiS_
	.p2align	4, 0x90
	.type	_Z3usePiS_,@function
_Z3usePiS_:                             # @_Z3usePiS_
.Lfunc_begin0:
	.file	0 "." "main.cpp" md5 0xe3a18fae8565a087d09d6076b542cdab
	.loc	0 1 0                           # main.cpp:1:0
	.cfi_startproc
# %bb.0:                                # %entry
	#DEBUG_VALUE: use:x <- $rdi
	#DEBUG_VALUE: use:y <- $rsi
	.loc	0 2 6 prologue_end              # main.cpp:2:6
	addl	$4, (%rdi)
	.loc	0 3 6                           # main.cpp:3:6
	addl	$-2, (%rsi)
	.loc	0 4 1                           # main.cpp:4:1
	retq
.Ltmp0:
.Lfunc_end0:
	.size	_Z3usePiS_, .Lfunc_end0-_Z3usePiS_
	.cfi_endproc
                                        # -- End function
	.section	.text.main,"ax",@progbits
	.globl	main                            # -- Begin function main
	.p2align	4, 0x90
	.type	main,@function
main:                                   # @main
.Lfunc_begin1:
	.loc	0 12 0                          # main.cpp:12:0
	.cfi_startproc
# %bb.0:                                # %entry
	#DEBUG_VALUE: main:argc <- $edi
	#DEBUG_VALUE: main:argv <- $rsi
	pushq	%rbp
	.cfi_def_cfa_offset 16
	pushq	%r15
	.cfi_def_cfa_offset 24
	pushq	%r14
	.cfi_def_cfa_offset 32
	pushq	%rbx
	.cfi_def_cfa_offset 40
	pushq	%rax
	.cfi_def_cfa_offset 48
	.cfi_offset %rbx, -40
	.cfi_offset %r14, -32
	.cfi_offset %r15, -24
	.cfi_offset %rbp, -16
.Ltmp1:
	#DEBUG_VALUE: main:x <- $edi
	movl	%edi, %ebx
.Ltmp2:
	#DEBUG_VALUE: main:y <- [DW_OP_plus_uconst 3, DW_OP_stack_value] undef
	#DEBUG_VALUE: use:x <- undef
	#DEBUG_VALUE: use:y <- undef
	.loc	0 2 6 prologue_end              # main.cpp:2:6
	leal	4(%rbx), %r14d
.Ltmp3:
	#DEBUG_VALUE: main:x <- $r14d
	.loc	0 14 20                         # main.cpp:14:20
	addl	fooVar0(%rip), %ebx
	.loc	0 14 30 is_stmt 0               # main.cpp:14:30
	addl	fooVar1(%rip), %ebx
.Ltmp4:
	.loc	0 3 6 is_stmt 1                 # main.cpp:3:6
	addl	fooVar2(%rip), %ebx
.Ltmp5:
	#DEBUG_VALUE: main:y <- undef
	.loc	0 16 19                         # main.cpp:16:19
	movl	%r14d, %edi
.Ltmp6:
	#DEBUG_VALUE: main:argc <- [DW_OP_LLVM_entry_value 1] $edi
	callq	_Z4foo0i
.Ltmp7:
	#DEBUG_VALUE: main:argv <- [DW_OP_LLVM_entry_value 1] $rsi
	movl	%eax, %ebp
	#DEBUG_VALUE: main:x <- $r14d
	.loc	0 16 29 is_stmt 0               # main.cpp:16:29
	movl	%r14d, %edi
	callq	_Z4foo1i
.Ltmp8:
	movl	%eax, %r15d
	#DEBUG_VALUE: main:x <- $r14d
	.loc	0 16 39                         # main.cpp:16:39
	movl	%r14d, %edi
	callq	_Z4foo2i
.Ltmp9:
                                        # kill: def $eax killed $eax def $rax
	.loc	0 16 13                         # main.cpp:16:13
	addl	%ebx, %ebp
	.loc	0 16 17                         # main.cpp:16:17
	addl	%r15d, %ebp
	.loc	0 16 37                         # main.cpp:16:37
	addl	%ebp, %eax
	addl	$5, %eax
	.loc	0 16 4                          # main.cpp:16:4
	addq	$8, %rsp
	.cfi_def_cfa_offset 40
	popq	%rbx
	.cfi_def_cfa_offset 32
	popq	%r14
.Ltmp10:
	.cfi_def_cfa_offset 24
	popq	%r15
	.cfi_def_cfa_offset 16
	popq	%rbp
	.cfi_def_cfa_offset 8
	retq
.Ltmp11:
.Lfunc_end1:
	.size	main, .Lfunc_end1-main
	.cfi_endproc
                                        # -- End function
	.section	".note.GNU-stack","",@progbits
	.addrsig