#-- input file: debug-names-parent-idx-2.cpp
## Generated with:
##
## - clang++ -g -O0 -gpubnames -fdebug-compilation-dir='parent-idx-test' \
##     -S debug-names-parent-idx-2.cpp -o debug-names-parent-idx-2.s
##
## foo.h contents:
##
## int foo();
##
## struct foo {
##   int x;
##   char y;
##   struct foo *foo_ptr;
## };
##
## namespace parent_test {
##   int foo();
## }
##
## debug-names-parent-index-2.cpp contents:
##
## #include "foo.h"
## int foo () {
##   struct foo struct2;
##   struct2.x = 1024;
##   struct2.y = 'r';
##   struct2.foo_ptr = nullptr;
##   return struct2.x * (int) struct2.y;
## }
##
## namespace parent_test {
## int foo () {
##   return 25;
## }
## }
##
	.text
	.globl	_Z3foov                         # -- Begin function _Z3foov
	.p2align	4, 0x90
	.type	_Z3foov,@function
_Z3foov:                                # @_Z3foov
.Lfunc_begin0:
	.cfi_startproc
# %bb.0:                                # %entry
	pushq	%rbp
	.cfi_def_cfa_offset 16
	.cfi_offset %rbp, -16
	movq	%rsp, %rbp
	.cfi_def_cfa_register %rbp
.Ltmp0:
	movl	$1024, -16(%rbp)                # imm = 0x400
	movb	$114, -12(%rbp)
	movq	$0, -8(%rbp)
	movl	-16(%rbp), %eax
	movsbl	-12(%rbp), %ecx
	imull	%ecx, %eax
	popq	%rbp
	.cfi_def_cfa %rsp, 8
	retq
.Ltmp1:
.Lfunc_end0:
	.size	_Z3foov, .Lfunc_end0-_Z3foov
	.cfi_endproc
                                        # -- End function
	.globl	_ZN11parent_test3fooEv          # -- Begin function _ZN11parent_test3fooEv
	.p2align	4, 0x90
	.type	_ZN11parent_test3fooEv,@function
_ZN11parent_test3fooEv:                 # @_ZN11parent_test3fooEv
.Lfunc_begin1:
	.cfi_startproc
# %bb.0:                                # %entry
	pushq	%rbp
	.cfi_def_cfa_offset 16
	.cfi_offset %rbp, -16
	movq	%rsp, %rbp
	.cfi_def_cfa_register %rbp
.Ltmp2:
	movl	$25, %eax
	popq	%rbp
	.cfi_def_cfa %rsp, 8
	retq
.Ltmp3:
.Lfunc_end1:
	.size	_ZN11parent_test3fooEv, .Lfunc_end1-_ZN11parent_test3fooEv
	.cfi_endproc
                                        # -- End function
	.section	".note.GNU-stack","",@progbits
	.addrsig