; The assembly below corresponds to this program:
; __attribute__((nodebug))
; int foo() {
;   return 10;
; }
; int main(int argc, char **argv) {
;   foo();
;   return 0;
; }
;
; The assembly was edited in two places (search for "EDIT"):
; 1. A "orr    x29, x29, #0x1000000000000000" instruction was added in foo. This
; effectively changes the CFA value of the frame above foo (i.e. main).
; 2. In main, the DWARF location of `argv` was changed to DW_AT_call_frame_cfa.
;
; This allows us to stop in foo, go to frame 1 (main) and do `v &argv`,
; obtaining the result of evaluating DW_AT_call_frame_cfa.

	.section	__TEXT,__text,regular,pure_instructions
	.globl	_foo                            ; -- Begin function foo
	.p2align	2
_foo:                                   ; @foo
Lfunc_begin0:
	.cfi_startproc
  orr    x29, x29, #0x1000000000000000    ; EDIT: Set top byte of fp.
	stp	x29, x30, [sp, #-16]!           ; 16-byte Folded Spill
	mov	x29, sp
	.cfi_def_cfa w29, 16
	.cfi_offset w30, -8
	.cfi_offset w29, -16
	mov	w0, #10                         ; =0xa
	ldp	x29, x30, [sp], #16             ; 16-byte Folded Reload
	ret
Lfunc_end0:
	.cfi_endproc
                                        ; -- End function
	.globl	_main                           ; -- Begin function main
	.p2align	2
_main:                                  ; @main
Lfunc_begin1:
	.file	1 "/test" "test.c"
	.loc	1 6 0                           ; test.c:6:0
	.cfi_startproc
	sub	sp, sp, #48
	stp	x29, x30, [sp, #32]             ; 16-byte Folded Spill
	add	x29, sp, #32
	.cfi_def_cfa w29, 16
	.cfi_offset w30, -8
	.cfi_offset w29, -16
	mov	w8, #0                          ; =0x0
	str	w8, [sp, #12]                   ; 4-byte Folded Spill
	stur	wzr, [x29, #-4]
	stur	w0, [x29, #-8]
	str	x1, [sp, #16]
Ltmp0:
	bl	_foo
	ldr	w0, [sp, #12]                   ; 4-byte Folded Reload
	ldp	x29, x30, [sp, #32]             ; 16-byte Folded Reload
	add	sp, sp, #48
	ret
Ltmp1:
Lfunc_end1:
	.cfi_endproc
                                        ; -- End function