	.file	"simple_types_loop_invariant.cpp"
	.text
	.globl	_Z13record_resultdPKc           // -- Begin function _Z13record_resultdPKc
	.p2align	2
	.type	_Z13record_resultdPKc,@function
_Z13record_resultdPKc:                  // @_Z13record_resultdPKc
	.cfi_startproc
// %bb.0:
	str	d8, [sp, #-64]!                 // 8-byte Folded Spill
	.cfi_def_cfa_offset 64
	stp	x29, x30, [sp, #16]             // 16-byte Folded Spill
	stp	x22, x21, [sp, #32]             // 16-byte Folded Spill
	stp	x20, x19, [sp, #48]             // 16-byte Folded Spill
	add	x29, sp, #16
	.cfi_def_cfa w29, 48
	.cfi_offset w19, -8
	.cfi_offset w20, -16
	.cfi_offset w21, -24
	.cfi_offset w22, -32
	.cfi_offset w30, -40
	.cfi_offset w29, -48
	.cfi_offset b8, -64
	.cfi_remember_state
	fmov	d8, d0
	adrp	x22, results
	adrp	x21, allocated_results
	mov	x19, x0
	ldr	x0, [x22, :lo12:results]
	ldr	w9, [x21, :lo12:allocated_results]
	adrp	x20, current_test
	cbz	x0, .LBB0_2
// %bb.1:
	ldr	w8, [x20, :lo12:current_test]
	cmp	w8, w9
	b.lt	.LBB0_4
.LBB0_2:
	add	w8, w9, #10
	sbfiz	x1, x8, #4, #32
	str	w8, [x21, :lo12:allocated_results]
	bl	realloc
	str	x0, [x22, :lo12:results]
	cbz	x0, .LBB0_5
// %bb.3:
	ldr	w8, [x20, :lo12:current_test]
.LBB0_4:
	add	x9, x0, w8, sxtw #4
	add	w8, w8, #1
	str	d8, [x9]
	str	x19, [x9, #8]
	str	w8, [x20, :lo12:current_test]
	.cfi_def_cfa wsp, 64
	ldp	x20, x19, [sp, #48]             // 16-byte Folded Reload
	ldp	x22, x21, [sp, #32]             // 16-byte Folded Reload
	ldp	x29, x30, [sp, #16]             // 16-byte Folded Reload
	ldr	d8, [sp], #64                   // 8-byte Folded Reload
	.cfi_def_cfa_offset 0
	.cfi_restore w19
	.cfi_restore w20
	.cfi_restore w21
	.cfi_restore w22
	.cfi_restore w30
	.cfi_restore w29
	.cfi_restore b8
	ret
.LBB0_5:
	.cfi_restore_state
	ldr	w1, [x21, :lo12:allocated_results]
	adrp	x0, .L.str
	add	x0, x0, :lo12:.L.str
	bl	printf
	mov	w0, #-1                         // =0xffffffff
	bl	exit
.Lfunc_end0:
	.size	_Z13record_resultdPKc, .Lfunc_end0-_Z13record_resultdPKc
	.cfi_endproc
                                        // -- End function
	.globl	_Z9summarizePKciiii             // -- Begin function _Z9summarizePKciiii
	.p2align	2
	.type	_Z9summarizePKciiii,@function
_Z9summarizePKciiii:                    // @_Z9summarizePKciiii
	.cfi_startproc
// %bb.0:
	sub	sp, sp, #128
	.cfi_def_cfa_offset 128
	stp	d9, d8, [sp, #16]               // 16-byte Folded Spill
	stp	x29, x30, [sp, #32]             // 16-byte Folded Spill
	stp	x28, x27, [sp, #48]             // 16-byte Folded Spill
	stp	x26, x25, [sp, #64]             // 16-byte Folded Spill
	stp	x24, x23, [sp, #80]             // 16-byte Folded Spill
	stp	x22, x21, [sp, #96]             // 16-byte Folded Spill
	stp	x20, x19, [sp, #112]            // 16-byte Folded Spill
	add	x29, sp, #32
	.cfi_def_cfa w29, 96
	.cfi_offset w19, -8
	.cfi_offset w20, -16
	.cfi_offset w21, -24
	.cfi_offset w22, -32
	.cfi_offset w23, -40
	.cfi_offset w24, -48
	.cfi_offset w25, -56
	.cfi_offset w26, -64
	.cfi_offset w27, -72
	.cfi_offset w28, -80
	.cfi_offset w30, -88
	.cfi_offset w29, -96
	.cfi_offset b8, -104
	.cfi_offset b9, -112
	adrp	x26, current_test
	mov	w20, w4
	mov	w22, w2
	ldr	w24, [x26, :lo12:current_test]
	mov	w23, w1
	mov	x19, x0
	adrp	x27, results
	cmp	w24, #1
	b.lt	.LBB1_3
// %bb.1:
	ldr	x8, [x27, :lo12:results]
	mov	w21, #12                        // =0xc
	add	x25, x8, #8
.LBB1_2:                                // =>This Inner Loop Header: Depth=1
	ldr	x0, [x25], #16
	bl	strlen
	cmp	w21, w0
	csel	w21, w21, w0, gt
	subs	x24, x24, #1
	b.ne	.LBB1_2
	b	.LBB1_4
.LBB1_3:
	mov	w21, #12                        // =0xc
.LBB1_4:
	adrp	x24, .L.str.2
	add	x24, x24, :lo12:.L.str.2
	sub	w1, w21, #12
	adrp	x0, .L.str.1
	add	x0, x0, :lo12:.L.str.1
	mov	x2, x24
	bl	printf
	adrp	x0, .L.str.3
	add	x0, x0, :lo12:.L.str.3
	mov	w1, w21
	mov	x2, x24
	bl	printf
	movi	d8, #0000000000000000
	ldr	w8, [x26, :lo12:current_test]
	cmp	w8, #1
	b.lt	.LBB1_15
// %bb.5:                               // %.preheader2
	scvtf	d0, w23
	scvtf	d1, w22
	mov	x8, #145685290680320            // =0x848000000000
	movk	x8, #16686, lsl #48
	mov	x28, xzr
	mov	x24, xzr
	adrp	x22, .L.str.4
	add	x22, x22, :lo12:.L.str.4
	adrp	x23, .L.str.5
	add	x23, x23, :lo12:.L.str.5
	str	w20, [sp, #4]                   // 4-byte Folded Spill
	fmul	d0, d0, d1
	fmov	d1, x8
	str	x19, [sp, #8]                   // 8-byte Folded Spill
	fdiv	d9, d0, d1
.LBB1_6:                                // =>This Inner Loop Header: Depth=1
	ldr	x20, [x27, :lo12:results]
	add	x19, x20, x28
	ldr	x25, [x19, #8]
	mov	x0, x25
	bl	strlen
	ldr	d0, [x19]
	ldr	d2, [x20]
	sub	w2, w21, w0
	mov	x0, x22
	mov	w1, w24
	mov	x3, x23
	fdiv	d1, d9, d0
	mov	x4, x25
	fdiv	d2, d0, d2
	bl	printf
	ldrsw	x8, [x26, :lo12:current_test]
	add	x24, x24, #1
	add	x28, x28, #16
	cmp	x24, x8
	b.lt	.LBB1_6
// %bb.7:
	ldr	x19, [sp, #8]                   // 8-byte Folded Reload
	ldr	w20, [sp, #4]                   // 4-byte Folded Reload
	cmp	w8, #1
	b.lt	.LBB1_15
// %bb.8:
	movi	d8, #0000000000000000
	ldr	x9, [x27, :lo12:results]
	cmp	w8, #1
	b.ne	.LBB1_10
// %bb.9:
	mov	x10, xzr
	b	.LBB1_13
.LBB1_10:
	and	x10, x8, #0x7ffffffe
	add	x11, x9, #16
	mov	x12, x10
.LBB1_11:                               // =>This Inner Loop Header: Depth=1
	ldur	d0, [x11, #-16]
	ldr	d1, [x11], #32
	subs	x12, x12, #2
	fadd	d0, d8, d0
	fadd	d8, d0, d1
	b.ne	.LBB1_11
// %bb.12:
	cmp	x10, x8
	b.eq	.LBB1_15
.LBB1_13:                               // %.preheader
	add	x9, x9, x10, lsl #4
	sub	x8, x8, x10
.LBB1_14:                               // =>This Inner Loop Header: Depth=1
	ldr	d0, [x9], #16
	subs	x8, x8, #1
	fadd	d8, d8, d0
	b.ne	.LBB1_14
.LBB1_15:
	fmov	d0, d8
	adrp	x0, .L.str.6
	add	x0, x0, :lo12:.L.str.6
	mov	x1, x19
	bl	printf
	cbz	w20, .LBB1_20
// %bb.16:
	ldr	w8, [x26, :lo12:current_test]
	cmp	w8, #2
	b.lt	.LBB1_20
// %bb.17:
	ldr	x20, [x27, :lo12:results]
	movi	d8, #0000000000000000
	mov	w21, #1                         // =0x1
	ldr	d9, [x20], #16
.LBB1_18:                               // =>This Inner Loop Header: Depth=1
	ldr	d0, [x20], #16
	fdiv	d0, d0, d9
	bl	log
	fadd	d8, d8, d0
	ldrsw	x8, [x26, :lo12:current_test]
	add	x21, x21, #1
	cmp	x21, x8
	b.lt	.LBB1_18
// %bb.19:
	sub	w8, w8, #1
	scvtf	d0, w8
	fdiv	d0, d8, d0
	bl	exp
	adrp	x0, .L.str.7
	add	x0, x0, :lo12:.L.str.7
	mov	x1, x19
	bl	printf
.LBB1_20:
	str	wzr, [x26, :lo12:current_test]
	.cfi_def_cfa wsp, 128
	ldp	x20, x19, [sp, #112]            // 16-byte Folded Reload
	ldp	x22, x21, [sp, #96]             // 16-byte Folded Reload
	ldp	x24, x23, [sp, #80]             // 16-byte Folded Reload
	ldp	x26, x25, [sp, #64]             // 16-byte Folded Reload
	ldp	x28, x27, [sp, #48]             // 16-byte Folded Reload
	ldp	x29, x30, [sp, #32]             // 16-byte Folded Reload
	ldp	d9, d8, [sp, #16]               // 16-byte Folded Reload
	add	sp, sp, #128
	.cfi_def_cfa_offset 0
	.cfi_restore w19
	.cfi_restore w20
	.cfi_restore w21
	.cfi_restore w22
	.cfi_restore w23
	.cfi_restore w24
	.cfi_restore w25
	.cfi_restore w26
	.cfi_restore w27
	.cfi_restore w28
	.cfi_restore w30
	.cfi_restore w29
	.cfi_restore b8
	.cfi_restore b9
	ret
.Lfunc_end1:
	.size	_Z9summarizePKciiii, .Lfunc_end1-_Z9summarizePKciiii
	.cfi_endproc
                                        // -- End function
	.globl	_Z17summarize_simplefP8_IO_FILEPKc // -- Begin function _Z17summarize_simplefP8_IO_FILEPKc
	.p2align	2
	.type	_Z17summarize_simplefP8_IO_FILEPKc,@function
_Z17summarize_simplefP8_IO_FILEPKc:     // @_Z17summarize_simplefP8_IO_FILEPKc
	.cfi_startproc
// %bb.0:
	str	d8, [sp, #-112]!                // 8-byte Folded Spill
	.cfi_def_cfa_offset 112
	stp	x29, x30, [sp, #16]             // 16-byte Folded Spill
	stp	x28, x27, [sp, #32]             // 16-byte Folded Spill
	stp	x26, x25, [sp, #48]             // 16-byte Folded Spill
	stp	x24, x23, [sp, #64]             // 16-byte Folded Spill
	stp	x22, x21, [sp, #80]             // 16-byte Folded Spill
	stp	x20, x19, [sp, #96]             // 16-byte Folded Spill
	add	x29, sp, #16
	.cfi_def_cfa w29, 96
	.cfi_offset w19, -8
	.cfi_offset w20, -16
	.cfi_offset w21, -24
	.cfi_offset w22, -32
	.cfi_offset w23, -40
	.cfi_offset w24, -48
	.cfi_offset w25, -56
	.cfi_offset w26, -64
	.cfi_offset w27, -72
	.cfi_offset w28, -80
	.cfi_offset w30, -88
	.cfi_offset w29, -96
	.cfi_offset b8, -112
	adrp	x26, current_test
	mov	x19, x1
	mov	x20, x0
	ldr	w22, [x26, :lo12:current_test]
	adrp	x27, results
	cmp	w22, #1
	b.lt	.LBB2_3
// %bb.1:
	ldr	x8, [x27, :lo12:results]
	mov	w21, #12                        // =0xc
	add	x23, x8, #8
.LBB2_2:                                // =>This Inner Loop Header: Depth=1
	ldr	x0, [x23], #16
	bl	strlen
	cmp	w21, w0
	csel	w21, w21, w0, gt
	subs	x22, x22, #1
	b.ne	.LBB2_2
	b	.LBB2_4
.LBB2_3:
	mov	w21, #12                        // =0xc
.LBB2_4:
	adrp	x22, .L.str.2
	add	x22, x22, :lo12:.L.str.2
	sub	w2, w21, #12
	adrp	x1, .L.str.8
	add	x1, x1, :lo12:.L.str.8
	mov	x0, x20
	mov	x3, x22
	bl	fprintf
	adrp	x1, .L.str.9
	add	x1, x1, :lo12:.L.str.9
	mov	x0, x20
	mov	w2, w21
	mov	x3, x22
	bl	fprintf
	movi	d8, #0000000000000000
	ldr	w8, [x26, :lo12:current_test]
	cmp	w8, #1
	b.lt	.LBB2_15
// %bb.5:                               // %.preheader2
	mov	x28, xzr
	mov	x22, xzr
	adrp	x23, .L.str.10
	add	x23, x23, :lo12:.L.str.10
	adrp	x24, .L.str.5
	add	x24, x24, :lo12:.L.str.5
	str	x19, [sp, #8]                   // 8-byte Folded Spill
.LBB2_6:                                // =>This Inner Loop Header: Depth=1
	ldr	x8, [x27, :lo12:results]
	add	x19, x8, x28
	ldr	x25, [x19, #8]
	mov	x0, x25
	bl	strlen
	ldr	d0, [x19]
	sub	w3, w21, w0
	mov	x0, x20
	mov	x1, x23
	mov	w2, w22
	mov	x4, x24
	mov	x5, x25
	bl	fprintf
	ldrsw	x8, [x26, :lo12:current_test]
	add	x22, x22, #1
	add	x28, x28, #16
	cmp	x22, x8
	b.lt	.LBB2_6
// %bb.7:
	ldr	x19, [sp, #8]                   // 8-byte Folded Reload
	cmp	w8, #1
	b.lt	.LBB2_15
// %bb.8:
	movi	d8, #0000000000000000
	ldr	x9, [x27, :lo12:results]
	cmp	w8, #1
	b.ne	.LBB2_10
// %bb.9:
	mov	x10, xzr
	b	.LBB2_13
.LBB2_10:
	and	x10, x8, #0x7ffffffe
	add	x11, x9, #16
	mov	x12, x10
.LBB2_11:                               // =>This Inner Loop Header: Depth=1
	ldur	d0, [x11, #-16]
	ldr	d1, [x11], #32
	subs	x12, x12, #2
	fadd	d0, d8, d0
	fadd	d8, d0, d1
	b.ne	.LBB2_11
// %bb.12:
	cmp	x10, x8
	b.eq	.LBB2_15
.LBB2_13:                               // %.preheader
	add	x9, x9, x10, lsl #4
	sub	x8, x8, x10
.LBB2_14:                               // =>This Inner Loop Header: Depth=1
	ldr	d0, [x9], #16
	subs	x8, x8, #1
	fadd	d8, d8, d0
	b.ne	.LBB2_14
.LBB2_15:
	fmov	d0, d8
	adrp	x1, .L.str.6
	add	x1, x1, :lo12:.L.str.6
	mov	x0, x20
	mov	x2, x19
	bl	fprintf
	str	wzr, [x26, :lo12:current_test]
	.cfi_def_cfa wsp, 112
	ldp	x20, x19, [sp, #96]             // 16-byte Folded Reload
	ldp	x22, x21, [sp, #80]             // 16-byte Folded Reload
	ldp	x24, x23, [sp, #64]             // 16-byte Folded Reload
	ldp	x26, x25, [sp, #48]             // 16-byte Folded Reload
	ldp	x28, x27, [sp, #32]             // 16-byte Folded Reload
	ldp	x29, x30, [sp, #16]             // 16-byte Folded Reload
	ldr	d8, [sp], #112                  // 8-byte Folded Reload
	.cfi_def_cfa_offset 0
	.cfi_restore w19
	.cfi_restore w20
	.cfi_restore w21
	.cfi_restore w22
	.cfi_restore w23
	.cfi_restore w24
	.cfi_restore w25
	.cfi_restore w26
	.cfi_restore w27
	.cfi_restore w28
	.cfi_restore w30
	.cfi_restore w29
	.cfi_restore b8
	ret
.Lfunc_end2:
	.size	_Z17summarize_simplefP8_IO_FILEPKc, .Lfunc_end2-_Z17summarize_simplefP8_IO_FILEPKc
	.cfi_endproc
                                        // -- End function
	.globl	_Z11start_timerv                // -- Begin function _Z11start_timerv
	.p2align	2
	.type	_Z11start_timerv,@function
_Z11start_timerv:                       // @_Z11start_timerv
	.cfi_startproc
// %bb.0:
	stp	x29, x30, [sp, #-16]!           // 16-byte Folded Spill
	.cfi_def_cfa_offset 16
	mov	x29, sp
	.cfi_def_cfa w29, 16
	.cfi_offset w30, -8
	.cfi_offset w29, -16
	bl	clock
	adrp	x8, start_time
	str	x0, [x8, :lo12:start_time]
	.cfi_def_cfa wsp, 16
	ldp	x29, x30, [sp], #16             // 16-byte Folded Reload
	.cfi_def_cfa_offset 0
	.cfi_restore w30
	.cfi_restore w29
	ret
.Lfunc_end3:
	.size	_Z11start_timerv, .Lfunc_end3-_Z11start_timerv
	.cfi_endproc
                                        // -- End function
	.globl	_Z5timerv                       // -- Begin function _Z5timerv
	.p2align	2
	.type	_Z5timerv,@function
_Z5timerv:                              // @_Z5timerv
	.cfi_startproc
// %bb.0:
	stp	x29, x30, [sp, #-16]!           // 16-byte Folded Spill
	.cfi_def_cfa_offset 16
	mov	x29, sp
	.cfi_def_cfa w29, 16
	.cfi_offset w30, -8
	.cfi_offset w29, -16
	bl	clock
	adrp	x8, start_time
	ldr	x8, [x8, :lo12:start_time]
	sub	x8, x0, x8
	scvtf	d0, x8
	mov	x8, #145685290680320            // =0x848000000000
	movk	x8, #16686, lsl #48
	fmov	d1, x8
	adrp	x8, end_time
	fdiv	d0, d0, d1
	str	x0, [x8, :lo12:end_time]
	.cfi_def_cfa wsp, 16
	ldp	x29, x30, [sp], #16             // 16-byte Folded Reload
	.cfi_def_cfa_offset 0
	.cfi_restore w30
	.cfi_restore w29
	ret
.Lfunc_end4:
	.size	_Z5timerv, .Lfunc_end4-_Z5timerv
	.cfi_endproc
                                        // -- End function
	.globl	main                            // -- Begin function main
	.p2align	2
	.type	main,@function
main:                                   // @main
	.cfi_startproc
// %bb.0:
	str	d12, [sp, #-112]!               // 8-byte Folded Spill
	.cfi_def_cfa_offset 112
	stp	d11, d10, [sp, #8]              // 16-byte Folded Spill
	stp	d9, d8, [sp, #24]               // 16-byte Folded Spill
	stp	x29, x30, [sp, #40]             // 16-byte Folded Spill
	str	x25, [sp, #56]                  // 8-byte Folded Spill
	stp	x24, x23, [sp, #64]             // 16-byte Folded Spill
	stp	x22, x21, [sp, #80]             // 16-byte Folded Spill
	stp	x20, x19, [sp, #96]             // 16-byte Folded Spill
	add	x29, sp, #40
	.cfi_def_cfa w29, 72
	.cfi_offset w19, -8
	.cfi_offset w20, -16
	.cfi_offset w21, -24
	.cfi_offset w22, -32
	.cfi_offset w23, -40
	.cfi_offset w24, -48
	.cfi_offset w25, -56
	.cfi_offset w30, -64
	.cfi_offset w29, -72
	.cfi_offset b8, -80
	.cfi_offset b9, -88
	.cfi_offset b10, -96
	.cfi_offset b11, -104
	.cfi_offset b12, -112
	fmov	d8, #1.00000000
	cmp	w0, #2
	adrp	x23, init_value
	b.lt	.LBB5_4
// %bb.1:
	mov	w20, w0
	ldr	x0, [x1, #8]
	mov	x19, x1
	mov	x1, xzr
	mov	w2, #10                         // =0xa
	bl	__isoc23_strtol
	adrp	x8, iterations
	cmp	w20, #2
	str	w0, [x8, :lo12:iterations]
	b.eq	.LBB5_4
// %bb.2:
	ldr	x0, [x19, #16]
	mov	x1, xzr
	bl	strtod
	cmp	w20, #4
	str	d0, [x23, :lo12:init_value]
	b.lo	.LBB5_4
// %bb.3:
	ldr	x0, [x19, #24]
	mov	x1, xzr
	bl	strtod
	fmov	d8, d0
.LBB5_4:
	ldr	d0, [x23, :lo12:init_value]
	adrp	x22, data8
	add	x22, x22, :lo12:data8
	mov	x0, x22
	mov	w2, #8000                       // =0x1f40
	mov	w24, #8000                      // =0x1f40
	fcvtzs	w1, d0
	bl	memset
	fcvtzs	w19, d8
	adrp	x3, .L.str.11
	add	x3, x3, :lo12:.L.str.11
	mov	x0, x22
	mov	w1, #8000                       // =0x1f40
	lsl	w20, w19, #1
	add	w21, w19, #2
	mov	w2, w19
	sxtb	w9, w21
	sxtb	w8, w20
	sdiv	w25, w8, w9
	bl	_Z14test_variable1Ia19custom_add_variableIaEEvPT_iS2_PKc
	adrp	x3, .L.str.12
	add	x3, x3, :lo12:.L.str.12
	mov	x0, x22
	mov	w1, #8000                       // =0x1f40
	mov	w2, w19
	bl	_Z22test_hoisted_variable1Ia19custom_add_variableIaEEvPT_iS2_PKc
	adrp	x6, .L.str.13
	add	x6, x6, :lo12:.L.str.13
	add	w5, w25, w19
	mov	x0, x22
	mov	w1, #8000                       // =0x1f40
	mov	w2, w19
	mov	w3, w20
	mov	w4, w21
	bl	_Z14test_variable4Ia28custom_add_multiple_variableIaEEvPT_iS2_S2_S2_S2_PKc
	adrp	x3, .L.str.14
	add	x3, x3, :lo12:.L.str.14
	mov	x0, x22
	mov	w1, #8000                       // =0x1f40
	mov	w2, w19
	bl	_Z14test_variable1Ia19custom_sub_variableIaEEvPT_iS2_PKc
	adrp	x6, .L.str.15
	add	x6, x6, :lo12:.L.str.15
	add	w5, w25, w19
	mov	x0, x22
	mov	w1, #8000                       // =0x1f40
	mov	w2, w19
	mov	w3, w20
	mov	w4, w21
	bl	_Z14test_variable4Ia28custom_sub_multiple_variableIaEEvPT_iS2_S2_S2_S2_PKc
	adrp	x3, .L.str.16
	add	x3, x3, :lo12:.L.str.16
	mov	x0, x22
	mov	w1, #8000                       // =0x1f40
	mov	w2, w19
	bl	_Z14test_variable1Ia24custom_multiply_variableIaEEvPT_iS2_PKc
	adrp	x6, .L.str.17
	add	x6, x6, :lo12:.L.str.17
	add	w5, w25, w19
	mov	x0, x22
	mov	w1, #8000                       // =0x1f40
	mov	w2, w19
	mov	w3, w20
	mov	w4, w21
	bl	_Z14test_variable4Ia33custom_multiply_multiple_variableIaEEvPT_iS2_S2_S2_S2_PKc
	adrp	x6, .L.str.18
	add	x6, x6, :lo12:.L.str.18
	add	w5, w25, w19
	mov	x0, x22
	mov	w1, #8000                       // =0x1f40
	mov	w2, w19
	mov	w3, w20
	mov	w4, w21
	bl	_Z14test_variable4Ia34custom_multiply_multiple_variable2IaEEvPT_iS2_S2_S2_S2_PKc
	adrp	x3, .L.str.19
	add	x3, x3, :lo12:.L.str.19
	mov	x0, x22
	mov	w1, #8000                       // =0x1f40
	mov	w2, w19
	bl	_Z14test_variable1Ia22custom_divide_variableIaEEvPT_iS2_PKc
	adrp	x6, .L.str.20
	add	x6, x6, :lo12:.L.str.20
	add	w5, w25, w19
	mov	x0, x22
	mov	w1, #8000                       // =0x1f40
	mov	w2, w19
	mov	w3, w20
	mov	w4, w21
	bl	_Z14test_variable4Ia31custom_divide_multiple_variableIaEEvPT_iS2_S2_S2_S2_PKc
	adrp	x6, .L.str.21
	add	x6, x6, :lo12:.L.str.21
	add	w5, w25, w19
	mov	x0, x22
	mov	w1, #8000                       // =0x1f40
	mov	w2, w19
	mov	w3, w20
	mov	w4, w21
	bl	_Z14test_variable4Ia32custom_divide_multiple_variable2IaEEvPT_iS2_S2_S2_S2_PKc
	adrp	x6, .L.str.22
	add	x6, x6, :lo12:.L.str.22
	add	w5, w25, w19
	mov	x0, x22
	mov	w1, #8000                       // =0x1f40
	mov	w2, w19
	mov	w3, w20
	mov	w4, w21
	bl	_Z14test_variable4Ia30custom_mixed_multiple_variableIaEEvPT_iS2_S2_S2_S2_PKc
	adrp	x3, .L.str.23
	add	x3, x3, :lo12:.L.str.23
	mov	x0, x22
	mov	w1, #8000                       // =0x1f40
	mov	w2, w19
	bl	_Z14test_variable1Ia19custom_variable_andIaEEvPT_iS2_PKc
	adrp	x6, .L.str.24
	add	x6, x6, :lo12:.L.str.24
	add	w5, w25, w19
	mov	x0, x22
	mov	w1, #8000                       // =0x1f40
	mov	w2, w19
	mov	w3, w20
	mov	w4, w21
	bl	_Z14test_variable4Ia28custom_multiple_variable_andIaEEvPT_iS2_S2_S2_S2_PKc
	adrp	x3, .L.str.25
	add	x3, x3, :lo12:.L.str.25
	mov	x0, x22
	mov	w1, #8000                       // =0x1f40
	mov	w2, w19
	bl	_Z14test_variable1Ia18custom_variable_orIaEEvPT_iS2_PKc
	adrp	x6, .L.str.26
	add	x6, x6, :lo12:.L.str.26
	add	w5, w25, w19
	mov	x0, x22
	mov	w1, #8000                       // =0x1f40
	mov	w2, w19
	mov	w3, w20
	mov	w4, w21
	bl	_Z14test_variable4Ia27custom_multiple_variable_orIaEEvPT_iS2_S2_S2_S2_PKc
	adrp	x3, .L.str.27
	add	x3, x3, :lo12:.L.str.27
	mov	x0, x22
	mov	w1, #8000                       // =0x1f40
	mov	w2, w19
	bl	_Z14test_variable1Ia19custom_variable_xorIaEEvPT_iS2_PKc
	adrp	x6, .L.str.28
	add	x6, x6, :lo12:.L.str.28
	add	w5, w25, w19
	mov	x0, x22
	mov	w1, #8000                       // =0x1f40
	mov	w2, w19
	mov	w3, w20
	mov	w4, w21
	bl	_Z14test_variable4Ia28custom_multiple_variable_xorIaEEvPT_iS2_S2_S2_S2_PKc
	ldr	d0, [x23, :lo12:init_value]
	adrp	x22, data8unsigned
	add	x22, x22, :lo12:data8unsigned
	mov	x0, x22
	mov	w2, #8000                       // =0x1f40
	fcvtzs	w1, d0
	bl	memset
	and	w8, w20, #0xfe
	and	w9, w21, #0xff
	adrp	x3, .L.str.29
	add	x3, x3, :lo12:.L.str.29
	mov	x0, x22
	mov	w1, #8000                       // =0x1f40
	mov	w2, w19
	udiv	w25, w8, w9
	bl	_Z14test_variable1Ih19custom_add_variableIhEEvPT_iS2_PKc
	adrp	x3, .L.str.30
	add	x3, x3, :lo12:.L.str.30
	mov	x0, x22
	mov	w1, #8000                       // =0x1f40
	mov	w2, w19
	bl	_Z22test_hoisted_variable1Ih19custom_add_variableIhEEvPT_iS2_PKc
	adrp	x6, .L.str.31
	add	x6, x6, :lo12:.L.str.31
	add	w5, w25, w19
	mov	x0, x22
	mov	w1, #8000                       // =0x1f40
	mov	w2, w19
	mov	w3, w20
	mov	w4, w21
	bl	_Z14test_variable4Ih28custom_add_multiple_variableIhEEvPT_iS2_S2_S2_S2_PKc
	adrp	x3, .L.str.32
	add	x3, x3, :lo12:.L.str.32
	mov	x0, x22
	mov	w1, #8000                       // =0x1f40
	mov	w2, w19
	bl	_Z14test_variable1Ih19custom_sub_variableIhEEvPT_iS2_PKc
	adrp	x6, .L.str.33
	add	x6, x6, :lo12:.L.str.33
	add	w5, w25, w19
	mov	x0, x22
	mov	w1, #8000                       // =0x1f40
	mov	w2, w19
	mov	w3, w20
	mov	w4, w21
	bl	_Z14test_variable4Ih28custom_sub_multiple_variableIhEEvPT_iS2_S2_S2_S2_PKc
	adrp	x3, .L.str.34
	add	x3, x3, :lo12:.L.str.34
	mov	x0, x22
	mov	w1, #8000                       // =0x1f40
	mov	w2, w19
	bl	_Z14test_variable1Ih24custom_multiply_variableIhEEvPT_iS2_PKc
	adrp	x6, .L.str.35
	add	x6, x6, :lo12:.L.str.35
	add	w5, w25, w19
	mov	x0, x22
	mov	w1, #8000                       // =0x1f40
	mov	w2, w19
	mov	w3, w20
	mov	w4, w21
	bl	_Z14test_variable4Ih33custom_multiply_multiple_variableIhEEvPT_iS2_S2_S2_S2_PKc
	adrp	x6, .L.str.36
	add	x6, x6, :lo12:.L.str.36
	add	w5, w25, w19
	mov	x0, x22
	mov	w1, #8000                       // =0x1f40
	mov	w2, w19
	mov	w3, w20
	mov	w4, w21
	bl	_Z14test_variable4Ih34custom_multiply_multiple_variable2IhEEvPT_iS2_S2_S2_S2_PKc
	adrp	x3, .L.str.37
	add	x3, x3, :lo12:.L.str.37
	mov	x0, x22
	mov	w1, #8000                       // =0x1f40
	mov	w2, w19
	bl	_Z14test_variable1Ih22custom_divide_variableIhEEvPT_iS2_PKc
	adrp	x6, .L.str.38
	add	x6, x6, :lo12:.L.str.38
	add	w5, w25, w19
	mov	x0, x22
	mov	w1, #8000                       // =0x1f40
	mov	w2, w19
	mov	w3, w20
	mov	w4, w21
	bl	_Z14test_variable4Ih31custom_divide_multiple_variableIhEEvPT_iS2_S2_S2_S2_PKc
	adrp	x6, .L.str.39
	add	x6, x6, :lo12:.L.str.39
	add	w5, w25, w19
	mov	x0, x22
	mov	w1, #8000                       // =0x1f40
	mov	w2, w19
	mov	w3, w20
	mov	w4, w21
	bl	_Z14test_variable4Ih32custom_divide_multiple_variable2IhEEvPT_iS2_S2_S2_S2_PKc
	adrp	x6, .L.str.40
	add	x6, x6, :lo12:.L.str.40
	add	w5, w25, w19
	mov	x0, x22
	mov	w1, #8000                       // =0x1f40
	mov	w2, w19
	mov	w3, w20
	mov	w4, w21
	bl	_Z14test_variable4Ih30custom_mixed_multiple_variableIhEEvPT_iS2_S2_S2_S2_PKc
	adrp	x3, .L.str.41
	add	x3, x3, :lo12:.L.str.41
	mov	x0, x22
	mov	w1, #8000                       // =0x1f40
	mov	w2, w19
	bl	_Z14test_variable1Ih19custom_variable_andIhEEvPT_iS2_PKc
	adrp	x6, .L.str.42
	add	x6, x6, :lo12:.L.str.42
	add	w5, w25, w19
	mov	x0, x22
	mov	w1, #8000                       // =0x1f40
	mov	w2, w19
	mov	w3, w20
	mov	w4, w21
	bl	_Z14test_variable4Ih28custom_multiple_variable_andIhEEvPT_iS2_S2_S2_S2_PKc
	adrp	x3, .L.str.43
	add	x3, x3, :lo12:.L.str.43
	mov	x0, x22
	mov	w1, #8000                       // =0x1f40
	mov	w2, w19
	bl	_Z14test_variable1Ih18custom_variable_orIhEEvPT_iS2_PKc
	adrp	x6, .L.str.44
	add	x6, x6, :lo12:.L.str.44
	add	w5, w25, w19
	mov	x0, x22
	mov	w1, #8000                       // =0x1f40
	mov	w2, w19
	mov	w3, w20
	mov	w4, w21
	bl	_Z14test_variable4Ih27custom_multiple_variable_orIhEEvPT_iS2_S2_S2_S2_PKc
	adrp	x3, .L.str.45
	add	x3, x3, :lo12:.L.str.45
	mov	x0, x22
	mov	w1, #8000                       // =0x1f40
	mov	w2, w19
	bl	_Z14test_variable1Ih19custom_variable_xorIhEEvPT_iS2_PKc
	adrp	x6, .L.str.46
	add	x6, x6, :lo12:.L.str.46
	add	w5, w25, w19
	mov	x0, x22
	mov	w1, #8000                       // =0x1f40
	mov	w2, w19
	mov	w3, w20
	mov	w4, w21
	bl	_Z14test_variable4Ih28custom_multiple_variable_xorIhEEvPT_iS2_S2_S2_S2_PKc
	ldr	d0, [x23, :lo12:init_value]
	fcvtzs	w8, d0
	dup	v0.8h, w8
	adrp	x8, data16+16
	add	x8, x8, :lo12:data16+16
.LBB5_5:                                // =>This Inner Loop Header: Depth=1
	subs	x24, x24, #16
	stp	q0, q0, [x8, #-16]
	add	x8, x8, #32
	b.ne	.LBB5_5
// %bb.6:
	add	w21, w19, #2
	sxth	w8, w20
	adrp	x22, data16
	add	x22, x22, :lo12:data16
	sxth	w9, w21
	adrp	x3, .L.str.47
	add	x3, x3, :lo12:.L.str.47
	mov	x0, x22
	mov	w1, #8000                       // =0x1f40
	mov	w2, w19
	sdiv	w25, w8, w9
	mov	w24, #8000                      // =0x1f40
	bl	_Z14test_variable1Is19custom_add_variableIsEEvPT_iS2_PKc
	adrp	x3, .L.str.48
	add	x3, x3, :lo12:.L.str.48
	mov	x0, x22
	mov	w1, #8000                       // =0x1f40
	mov	w2, w19
	bl	_Z22test_hoisted_variable1Is19custom_add_variableIsEEvPT_iS2_PKc
	adrp	x6, .L.str.49
	add	x6, x6, :lo12:.L.str.49
	add	w5, w25, w19
	mov	x0, x22
	mov	w1, #8000                       // =0x1f40
	mov	w2, w19
	mov	w3, w20
	mov	w4, w21
	bl	_Z14test_variable4Is28custom_add_multiple_variableIsEEvPT_iS2_S2_S2_S2_PKc
	adrp	x3, .L.str.50
	add	x3, x3, :lo12:.L.str.50
	mov	x0, x22
	mov	w1, #8000                       // =0x1f40
	mov	w2, w19
	bl	_Z14test_variable1Is19custom_sub_variableIsEEvPT_iS2_PKc
	adrp	x6, .L.str.51
	add	x6, x6, :lo12:.L.str.51
	add	w5, w25, w19
	mov	x0, x22
	mov	w1, #8000                       // =0x1f40
	mov	w2, w19
	mov	w3, w20
	mov	w4, w21
	bl	_Z14test_variable4Is28custom_sub_multiple_variableIsEEvPT_iS2_S2_S2_S2_PKc
	adrp	x3, .L.str.52
	add	x3, x3, :lo12:.L.str.52
	mov	x0, x22
	mov	w1, #8000                       // =0x1f40
	mov	w2, w19
	bl	_Z14test_variable1Is24custom_multiply_variableIsEEvPT_iS2_PKc
	adrp	x6, .L.str.53
	add	x6, x6, :lo12:.L.str.53
	add	w5, w25, w19
	mov	x0, x22
	mov	w1, #8000                       // =0x1f40
	mov	w2, w19
	mov	w3, w20
	mov	w4, w21
	bl	_Z14test_variable4Is33custom_multiply_multiple_variableIsEEvPT_iS2_S2_S2_S2_PKc
	adrp	x6, .L.str.54
	add	x6, x6, :lo12:.L.str.54
	add	w5, w25, w19
	mov	x0, x22
	mov	w1, #8000                       // =0x1f40
	mov	w2, w19
	mov	w3, w20
	mov	w4, w21
	bl	_Z14test_variable4Is34custom_multiply_multiple_variable2IsEEvPT_iS2_S2_S2_S2_PKc
	adrp	x3, .L.str.55
	add	x3, x3, :lo12:.L.str.55
	mov	x0, x22
	mov	w1, #8000                       // =0x1f40
	mov	w2, w19
	bl	_Z14test_variable1Is22custom_divide_variableIsEEvPT_iS2_PKc
	adrp	x6, .L.str.56
	add	x6, x6, :lo12:.L.str.56
	add	w5, w25, w19
	mov	x0, x22
	mov	w1, #8000                       // =0x1f40
	mov	w2, w19
	mov	w3, w20
	mov	w4, w21
	bl	_Z14test_variable4Is31custom_divide_multiple_variableIsEEvPT_iS2_S2_S2_S2_PKc
	adrp	x6, .L.str.57
	add	x6, x6, :lo12:.L.str.57
	add	w5, w25, w19
	mov	x0, x22
	mov	w1, #8000                       // =0x1f40
	mov	w2, w19
	mov	w3, w20
	mov	w4, w21
	bl	_Z14test_variable4Is32custom_divide_multiple_variable2IsEEvPT_iS2_S2_S2_S2_PKc
	adrp	x6, .L.str.58
	add	x6, x6, :lo12:.L.str.58
	add	w5, w25, w19
	mov	x0, x22
	mov	w1, #8000                       // =0x1f40
	mov	w2, w19
	mov	w3, w20
	mov	w4, w21
	bl	_Z14test_variable4Is30custom_mixed_multiple_variableIsEEvPT_iS2_S2_S2_S2_PKc
	adrp	x3, .L.str.59
	add	x3, x3, :lo12:.L.str.59
	mov	x0, x22
	mov	w1, #8000                       // =0x1f40
	mov	w2, w19
	bl	_Z14test_variable1Is19custom_variable_andIsEEvPT_iS2_PKc
	adrp	x6, .L.str.60
	add	x6, x6, :lo12:.L.str.60
	add	w5, w25, w19
	mov	x0, x22
	mov	w1, #8000                       // =0x1f40
	mov	w2, w19
	mov	w3, w20
	mov	w4, w21
	bl	_Z14test_variable4Is28custom_multiple_variable_andIsEEvPT_iS2_S2_S2_S2_PKc
	adrp	x3, .L.str.61
	add	x3, x3, :lo12:.L.str.61
	mov	x0, x22
	mov	w1, #8000                       // =0x1f40
	mov	w2, w19
	bl	_Z14test_variable1Is18custom_variable_orIsEEvPT_iS2_PKc
	adrp	x6, .L.str.62
	add	x6, x6, :lo12:.L.str.62
	add	w5, w25, w19
	mov	x0, x22
	mov	w1, #8000                       // =0x1f40
	mov	w2, w19
	mov	w3, w20
	mov	w4, w21
	bl	_Z14test_variable4Is27custom_multiple_variable_orIsEEvPT_iS2_S2_S2_S2_PKc
	adrp	x3, .L.str.63
	add	x3, x3, :lo12:.L.str.63
	mov	x0, x22
	mov	w1, #8000                       // =0x1f40
	mov	w2, w19
	bl	_Z14test_variable1Is19custom_variable_xorIsEEvPT_iS2_PKc
	adrp	x6, .L.str.64
	add	x6, x6, :lo12:.L.str.64
	add	w5, w25, w19
	mov	x0, x22
	mov	w1, #8000                       // =0x1f40
	mov	w2, w19
	mov	w3, w20
	mov	w4, w21
	bl	_Z14test_variable4Is28custom_multiple_variable_xorIsEEvPT_iS2_S2_S2_S2_PKc
	ldr	d0, [x23, :lo12:init_value]
	fcvtzs	w8, d0
	dup	v0.8h, w8
	adrp	x8, data16unsigned+16
	add	x8, x8, :lo12:data16unsigned+16
.LBB5_7:                                // =>This Inner Loop Header: Depth=1
	subs	x24, x24, #16
	stp	q0, q0, [x8, #-16]
	add	x8, x8, #32
	b.ne	.LBB5_7
// %bb.8:
	add	w21, w19, #2
	adrp	x22, data16unsigned
	add	x22, x22, :lo12:data16unsigned
	and	w8, w20, #0xfffe
	and	w9, w21, #0xffff
	adrp	x3, .L.str.65
	add	x3, x3, :lo12:.L.str.65
	mov	x0, x22
	mov	w1, #8000                       // =0x1f40
	mov	w2, w19
	udiv	w25, w8, w9
	mov	w24, #8000                      // =0x1f40
	bl	_Z14test_variable1It19custom_add_variableItEEvPT_iS2_PKc
	adrp	x3, .L.str.66
	add	x3, x3, :lo12:.L.str.66
	mov	x0, x22
	mov	w1, #8000                       // =0x1f40
	mov	w2, w19
	bl	_Z22test_hoisted_variable1It19custom_add_variableItEEvPT_iS2_PKc
	adrp	x6, .L.str.67
	add	x6, x6, :lo12:.L.str.67
	add	w5, w25, w19
	mov	x0, x22
	mov	w1, #8000                       // =0x1f40
	mov	w2, w19
	mov	w3, w20
	mov	w4, w21
	bl	_Z14test_variable4It28custom_add_multiple_variableItEEvPT_iS2_S2_S2_S2_PKc
	adrp	x3, .L.str.68
	add	x3, x3, :lo12:.L.str.68
	mov	x0, x22
	mov	w1, #8000                       // =0x1f40
	mov	w2, w19
	bl	_Z14test_variable1It19custom_sub_variableItEEvPT_iS2_PKc
	adrp	x6, .L.str.69
	add	x6, x6, :lo12:.L.str.69
	add	w5, w25, w19
	mov	x0, x22
	mov	w1, #8000                       // =0x1f40
	mov	w2, w19
	mov	w3, w20
	mov	w4, w21
	bl	_Z14test_variable4It28custom_sub_multiple_variableItEEvPT_iS2_S2_S2_S2_PKc
	adrp	x3, .L.str.70
	add	x3, x3, :lo12:.L.str.70
	mov	x0, x22
	mov	w1, #8000                       // =0x1f40
	mov	w2, w19
	bl	_Z14test_variable1It24custom_multiply_variableItEEvPT_iS2_PKc
	adrp	x6, .L.str.71
	add	x6, x6, :lo12:.L.str.71
	add	w5, w25, w19
	mov	x0, x22
	mov	w1, #8000                       // =0x1f40
	mov	w2, w19
	mov	w3, w20
	mov	w4, w21
	bl	_Z14test_variable4It33custom_multiply_multiple_variableItEEvPT_iS2_S2_S2_S2_PKc
	adrp	x6, .L.str.72
	add	x6, x6, :lo12:.L.str.72
	add	w5, w25, w19
	mov	x0, x22
	mov	w1, #8000                       // =0x1f40
	mov	w2, w19
	mov	w3, w20
	mov	w4, w21
	bl	_Z14test_variable4It34custom_multiply_multiple_variable2ItEEvPT_iS2_S2_S2_S2_PKc
	adrp	x3, .L.str.73
	add	x3, x3, :lo12:.L.str.73
	mov	x0, x22
	mov	w1, #8000                       // =0x1f40
	mov	w2, w19
	bl	_Z14test_variable1It22custom_divide_variableItEEvPT_iS2_PKc
	adrp	x6, .L.str.74
	add	x6, x6, :lo12:.L.str.74
	add	w5, w25, w19
	mov	x0, x22
	mov	w1, #8000                       // =0x1f40
	mov	w2, w19
	mov	w3, w20
	mov	w4, w21
	bl	_Z14test_variable4It31custom_divide_multiple_variableItEEvPT_iS2_S2_S2_S2_PKc
	adrp	x6, .L.str.75
	add	x6, x6, :lo12:.L.str.75
	add	w5, w25, w19
	mov	x0, x22
	mov	w1, #8000                       // =0x1f40
	mov	w2, w19
	mov	w3, w20
	mov	w4, w21
	bl	_Z14test_variable4It32custom_divide_multiple_variable2ItEEvPT_iS2_S2_S2_S2_PKc
	adrp	x6, .L.str.76
	add	x6, x6, :lo12:.L.str.76
	add	w5, w25, w19
	mov	x0, x22
	mov	w1, #8000                       // =0x1f40
	mov	w2, w19
	mov	w3, w20
	mov	w4, w21
	bl	_Z14test_variable4It30custom_mixed_multiple_variableItEEvPT_iS2_S2_S2_S2_PKc
	adrp	x3, .L.str.77
	add	x3, x3, :lo12:.L.str.77
	mov	x0, x22
	mov	w1, #8000                       // =0x1f40
	mov	w2, w19
	bl	_Z14test_variable1It19custom_variable_andItEEvPT_iS2_PKc
	adrp	x6, .L.str.78
	add	x6, x6, :lo12:.L.str.78
	add	w5, w25, w19
	mov	x0, x22
	mov	w1, #8000                       // =0x1f40
	mov	w2, w19
	mov	w3, w20
	mov	w4, w21
	bl	_Z14test_variable4It28custom_multiple_variable_andItEEvPT_iS2_S2_S2_S2_PKc
	adrp	x3, .L.str.79
	add	x3, x3, :lo12:.L.str.79
	mov	x0, x22
	mov	w1, #8000                       // =0x1f40
	mov	w2, w19
	bl	_Z14test_variable1It18custom_variable_orItEEvPT_iS2_PKc
	adrp	x6, .L.str.80
	add	x6, x6, :lo12:.L.str.80
	add	w5, w25, w19
	mov	x0, x22
	mov	w1, #8000                       // =0x1f40
	mov	w2, w19
	mov	w3, w20
	mov	w4, w21
	bl	_Z14test_variable4It27custom_multiple_variable_orItEEvPT_iS2_S2_S2_S2_PKc
	adrp	x3, .L.str.81
	add	x3, x3, :lo12:.L.str.81
	mov	x0, x22
	mov	w1, #8000                       // =0x1f40
	mov	w2, w19
	bl	_Z14test_variable1It19custom_variable_xorItEEvPT_iS2_PKc
	adrp	x6, .L.str.82
	add	x6, x6, :lo12:.L.str.82
	add	w5, w25, w19
	mov	x0, x22
	mov	w1, #8000                       // =0x1f40
	mov	w2, w19
	mov	w3, w20
	mov	w4, w21
	bl	_Z14test_variable4It28custom_multiple_variable_xorItEEvPT_iS2_S2_S2_S2_PKc
	ldr	d0, [x23, :lo12:init_value]
	fcvtzs	w8, d0
	dup	v0.4s, w8
	adrp	x8, data32+16
	add	x8, x8, :lo12:data32+16
.LBB5_9:                                // =>This Inner Loop Header: Depth=1
	subs	x24, x24, #8
	stp	q0, q0, [x8, #-16]
	add	x8, x8, #32
	b.ne	.LBB5_9
// %bb.10:
	adrp	x22, data32
	add	x22, x22, :lo12:data32
	add	w21, w19, #2
	adrp	x3, .L.str.83
	add	x3, x3, :lo12:.L.str.83
	mov	x0, x22
	mov	w1, #8000                       // =0x1f40
	mov	w2, w19
	sdiv	w25, w20, w21
	mov	w24, #8000                      // =0x1f40
	bl	_Z14test_variable1Ii19custom_add_variableIiEEvPT_iS2_PKc
	adrp	x3, .L.str.84
	add	x3, x3, :lo12:.L.str.84
	mov	x0, x22
	mov	w1, #8000                       // =0x1f40
	mov	w2, w19
	bl	_Z22test_hoisted_variable1Ii19custom_add_variableIiEEvPT_iS2_PKc
	adrp	x6, .L.str.85
	add	x6, x6, :lo12:.L.str.85
	add	w5, w25, w19
	mov	x0, x22
	mov	w1, #8000                       // =0x1f40
	mov	w2, w19
	mov	w3, w20
	mov	w4, w21
	bl	_Z14test_variable4Ii28custom_add_multiple_variableIiEEvPT_iS2_S2_S2_S2_PKc
	adrp	x3, .L.str.86
	add	x3, x3, :lo12:.L.str.86
	mov	x0, x22
	mov	w1, #8000                       // =0x1f40
	mov	w2, w19
	bl	_Z14test_variable1Ii19custom_sub_variableIiEEvPT_iS2_PKc
	adrp	x6, .L.str.87
	add	x6, x6, :lo12:.L.str.87
	add	w5, w25, w19
	mov	x0, x22
	mov	w1, #8000                       // =0x1f40
	mov	w2, w19
	mov	w3, w20
	mov	w4, w21
	bl	_Z14test_variable4Ii28custom_sub_multiple_variableIiEEvPT_iS2_S2_S2_S2_PKc
	adrp	x3, .L.str.88
	add	x3, x3, :lo12:.L.str.88
	mov	x0, x22
	mov	w1, #8000                       // =0x1f40
	mov	w2, w19
	bl	_Z14test_variable1Ii24custom_multiply_variableIiEEvPT_iS2_PKc
	adrp	x6, .L.str.89
	add	x6, x6, :lo12:.L.str.89
	add	w5, w25, w19
	mov	x0, x22
	mov	w1, #8000                       // =0x1f40
	mov	w2, w19
	mov	w3, w20
	mov	w4, w21
	bl	_Z14test_variable4Ii33custom_multiply_multiple_variableIiEEvPT_iS2_S2_S2_S2_PKc
	adrp	x6, .L.str.90
	add	x6, x6, :lo12:.L.str.90
	add	w5, w25, w19
	mov	x0, x22
	mov	w1, #8000                       // =0x1f40
	mov	w2, w19
	mov	w3, w20
	mov	w4, w21
	bl	_Z14test_variable4Ii34custom_multiply_multiple_variable2IiEEvPT_iS2_S2_S2_S2_PKc
	adrp	x3, .L.str.91
	add	x3, x3, :lo12:.L.str.91
	mov	x0, x22
	mov	w1, #8000                       // =0x1f40
	mov	w2, w19
	bl	_Z14test_variable1Ii22custom_divide_variableIiEEvPT_iS2_PKc
	adrp	x6, .L.str.92
	add	x6, x6, :lo12:.L.str.92
	add	w5, w25, w19
	mov	x0, x22
	mov	w1, #8000                       // =0x1f40
	mov	w2, w19
	mov	w3, w20
	mov	w4, w21
	bl	_Z14test_variable4Ii31custom_divide_multiple_variableIiEEvPT_iS2_S2_S2_S2_PKc
	adrp	x6, .L.str.93
	add	x6, x6, :lo12:.L.str.93
	add	w5, w25, w19
	mov	x0, x22
	mov	w1, #8000                       // =0x1f40
	mov	w2, w19
	mov	w3, w20
	mov	w4, w21
	bl	_Z14test_variable4Ii32custom_divide_multiple_variable2IiEEvPT_iS2_S2_S2_S2_PKc
	adrp	x6, .L.str.94
	add	x6, x6, :lo12:.L.str.94
	add	w5, w25, w19
	mov	x0, x22
	mov	w1, #8000                       // =0x1f40
	mov	w2, w19
	mov	w3, w20
	mov	w4, w21
	bl	_Z14test_variable4Ii30custom_mixed_multiple_variableIiEEvPT_iS2_S2_S2_S2_PKc
	adrp	x3, .L.str.95
	add	x3, x3, :lo12:.L.str.95
	mov	x0, x22
	mov	w1, #8000                       // =0x1f40
	mov	w2, w19
	bl	_Z14test_variable1Ii19custom_variable_andIiEEvPT_iS2_PKc
	adrp	x6, .L.str.96
	add	x6, x6, :lo12:.L.str.96
	add	w5, w25, w19
	mov	x0, x22
	mov	w1, #8000                       // =0x1f40
	mov	w2, w19
	mov	w3, w20
	mov	w4, w21
	bl	_Z14test_variable4Ii28custom_multiple_variable_andIiEEvPT_iS2_S2_S2_S2_PKc
	adrp	x3, .L.str.97
	add	x3, x3, :lo12:.L.str.97
	mov	x0, x22
	mov	w1, #8000                       // =0x1f40
	mov	w2, w19
	bl	_Z14test_variable1Ii18custom_variable_orIiEEvPT_iS2_PKc
	adrp	x6, .L.str.98
	add	x6, x6, :lo12:.L.str.98
	add	w5, w25, w19
	mov	x0, x22
	mov	w1, #8000                       // =0x1f40
	mov	w2, w19
	mov	w3, w20
	mov	w4, w21
	bl	_Z14test_variable4Ii27custom_multiple_variable_orIiEEvPT_iS2_S2_S2_S2_PKc
	adrp	x3, .L.str.99
	add	x3, x3, :lo12:.L.str.99
	mov	x0, x22
	mov	w1, #8000                       // =0x1f40
	mov	w2, w19
	bl	_Z14test_variable1Ii19custom_variable_xorIiEEvPT_iS2_PKc
	adrp	x6, .L.str.100
	add	x6, x6, :lo12:.L.str.100
	add	w5, w25, w19
	mov	x0, x22
	mov	w1, #8000                       // =0x1f40
	mov	w2, w19
	mov	w3, w20
	mov	w4, w21
	bl	_Z14test_variable4Ii28custom_multiple_variable_xorIiEEvPT_iS2_S2_S2_S2_PKc
	ldr	d0, [x23, :lo12:init_value]
	fcvtzu	w8, d0
	dup	v0.4s, w8
	adrp	x8, data32unsigned+16
	add	x8, x8, :lo12:data32unsigned+16
.LBB5_11:                               // =>This Inner Loop Header: Depth=1
	subs	x24, x24, #8
	stp	q0, q0, [x8, #-16]
	add	x8, x8, #32
	b.ne	.LBB5_11
// %bb.12:
	fcvtzu	w19, d8
	adrp	x22, data32unsigned
	add	x22, x22, :lo12:data32unsigned
	adrp	x3, .L.str.101
	add	x3, x3, :lo12:.L.str.101
	mov	x0, x22
	mov	w1, #8000                       // =0x1f40
	mov	w24, #8000                      // =0x1f40
	lsl	w20, w19, #1
	add	w21, w19, #2
	mov	w2, w19
	udiv	w25, w20, w21
	bl	_Z14test_variable1Ij19custom_add_variableIjEEvPT_iS2_PKc
	adrp	x3, .L.str.102
	add	x3, x3, :lo12:.L.str.102
	mov	x0, x22
	mov	w1, #8000                       // =0x1f40
	mov	w2, w19
	bl	_Z22test_hoisted_variable1Ij19custom_add_variableIjEEvPT_iS2_PKc
	adrp	x6, .L.str.103
	add	x6, x6, :lo12:.L.str.103
	add	w5, w25, w19
	mov	x0, x22
	mov	w1, #8000                       // =0x1f40
	mov	w2, w19
	mov	w3, w20
	mov	w4, w21
	bl	_Z14test_variable4Ij28custom_add_multiple_variableIjEEvPT_iS2_S2_S2_S2_PKc
	adrp	x3, .L.str.104
	add	x3, x3, :lo12:.L.str.104
	mov	x0, x22
	mov	w1, #8000                       // =0x1f40
	mov	w2, w19
	bl	_Z14test_variable1Ij19custom_sub_variableIjEEvPT_iS2_PKc
	adrp	x6, .L.str.105
	add	x6, x6, :lo12:.L.str.105
	add	w5, w25, w19
	mov	x0, x22
	mov	w1, #8000                       // =0x1f40
	mov	w2, w19
	mov	w3, w20
	mov	w4, w21
	bl	_Z14test_variable4Ij28custom_sub_multiple_variableIjEEvPT_iS2_S2_S2_S2_PKc
	adrp	x3, .L.str.106
	add	x3, x3, :lo12:.L.str.106
	mov	x0, x22
	mov	w1, #8000                       // =0x1f40
	mov	w2, w19
	bl	_Z14test_variable1Ij24custom_multiply_variableIjEEvPT_iS2_PKc
	adrp	x6, .L.str.107
	add	x6, x6, :lo12:.L.str.107
	add	w5, w25, w19
	mov	x0, x22
	mov	w1, #8000                       // =0x1f40
	mov	w2, w19
	mov	w3, w20
	mov	w4, w21
	bl	_Z14test_variable4Ij33custom_multiply_multiple_variableIjEEvPT_iS2_S2_S2_S2_PKc
	adrp	x6, .L.str.108
	add	x6, x6, :lo12:.L.str.108
	add	w5, w25, w19
	mov	x0, x22
	mov	w1, #8000                       // =0x1f40
	mov	w2, w19
	mov	w3, w20
	mov	w4, w21
	bl	_Z14test_variable4Ij34custom_multiply_multiple_variable2IjEEvPT_iS2_S2_S2_S2_PKc
	adrp	x3, .L.str.109
	add	x3, x3, :lo12:.L.str.109
	mov	x0, x22
	mov	w1, #8000                       // =0x1f40
	mov	w2, w19
	bl	_Z14test_variable1Ij22custom_divide_variableIjEEvPT_iS2_PKc
	adrp	x6, .L.str.110
	add	x6, x6, :lo12:.L.str.110
	add	w5, w25, w19
	mov	x0, x22
	mov	w1, #8000                       // =0x1f40
	mov	w2, w19
	mov	w3, w20
	mov	w4, w21
	bl	_Z14test_variable4Ij31custom_divide_multiple_variableIjEEvPT_iS2_S2_S2_S2_PKc
	adrp	x6, .L.str.111
	add	x6, x6, :lo12:.L.str.111
	add	w5, w25, w19
	mov	x0, x22
	mov	w1, #8000                       // =0x1f40
	mov	w2, w19
	mov	w3, w20
	mov	w4, w21
	bl	_Z14test_variable4Ij32custom_divide_multiple_variable2IjEEvPT_iS2_S2_S2_S2_PKc
	adrp	x6, .L.str.112
	add	x6, x6, :lo12:.L.str.112
	add	w5, w25, w19
	mov	x0, x22
	mov	w1, #8000                       // =0x1f40
	mov	w2, w19
	mov	w3, w20
	mov	w4, w21
	bl	_Z14test_variable4Ij30custom_mixed_multiple_variableIjEEvPT_iS2_S2_S2_S2_PKc
	adrp	x3, .L.str.113
	add	x3, x3, :lo12:.L.str.113
	mov	x0, x22
	mov	w1, #8000                       // =0x1f40
	mov	w2, w19
	bl	_Z14test_variable1Ij19custom_variable_andIjEEvPT_iS2_PKc
	adrp	x6, .L.str.114
	add	x6, x6, :lo12:.L.str.114
	add	w5, w25, w19
	mov	x0, x22
	mov	w1, #8000                       // =0x1f40
	mov	w2, w19
	mov	w3, w20
	mov	w4, w21
	bl	_Z14test_variable4Ij28custom_multiple_variable_andIjEEvPT_iS2_S2_S2_S2_PKc
	adrp	x3, .L.str.115
	add	x3, x3, :lo12:.L.str.115
	mov	x0, x22
	mov	w1, #8000                       // =0x1f40
	mov	w2, w19
	bl	_Z14test_variable1Ij18custom_variable_orIjEEvPT_iS2_PKc
	adrp	x6, .L.str.116
	add	x6, x6, :lo12:.L.str.116
	add	w5, w25, w19
	mov	x0, x22
	mov	w1, #8000                       // =0x1f40
	mov	w2, w19
	mov	w3, w20
	mov	w4, w21
	bl	_Z14test_variable4Ij27custom_multiple_variable_orIjEEvPT_iS2_S2_S2_S2_PKc
	adrp	x3, .L.str.117
	add	x3, x3, :lo12:.L.str.117
	mov	x0, x22
	mov	w1, #8000                       // =0x1f40
	mov	w2, w19
	bl	_Z14test_variable1Ij19custom_variable_xorIjEEvPT_iS2_PKc
	adrp	x6, .L.str.118
	add	x6, x6, :lo12:.L.str.118
	add	w5, w25, w19
	mov	x0, x22
	mov	w1, #8000                       // =0x1f40
	mov	w2, w19
	mov	w3, w20
	mov	w4, w21
	bl	_Z14test_variable4Ij28custom_multiple_variable_xorIjEEvPT_iS2_S2_S2_S2_PKc
	ldr	d0, [x23, :lo12:init_value]
	fcvtzs	x8, d0
	dup	v0.2d, x8
	adrp	x8, data64+16
	add	x8, x8, :lo12:data64+16
.LBB5_13:                               // =>This Inner Loop Header: Depth=1
	subs	x24, x24, #4
	stp	q0, q0, [x8, #-16]
	add	x8, x8, #32
	b.ne	.LBB5_13
// %bb.14:
	fcvtzs	x19, d8
	adrp	x22, data64
	add	x22, x22, :lo12:data64
	adrp	x3, .L.str.119
	add	x3, x3, :lo12:.L.str.119
	mov	x0, x22
	mov	w1, #8000                       // =0x1f40
	mov	w24, #8000                      // =0x1f40
	lsl	x20, x19, #1
	add	x21, x19, #2
	mov	x2, x19
	sdiv	x25, x20, x21
	bl	_Z14test_variable1Il19custom_add_variableIlEEvPT_iS2_PKc
	adrp	x3, .L.str.120
	add	x3, x3, :lo12:.L.str.120
	mov	x0, x22
	mov	w1, #8000                       // =0x1f40
	mov	x2, x19
	bl	_Z22test_hoisted_variable1Il19custom_add_variableIlEEvPT_iS2_PKc
	adrp	x6, .L.str.121
	add	x6, x6, :lo12:.L.str.121
	add	x5, x25, x19
	mov	x0, x22
	mov	w1, #8000                       // =0x1f40
	mov	x2, x19
	mov	x3, x20
	mov	x4, x21
	bl	_Z14test_variable4Il28custom_add_multiple_variableIlEEvPT_iS2_S2_S2_S2_PKc
	adrp	x3, .L.str.122
	add	x3, x3, :lo12:.L.str.122
	mov	x0, x22
	mov	w1, #8000                       // =0x1f40
	mov	x2, x19
	bl	_Z14test_variable1Il19custom_sub_variableIlEEvPT_iS2_PKc
	adrp	x6, .L.str.123
	add	x6, x6, :lo12:.L.str.123
	add	x5, x25, x19
	mov	x0, x22
	mov	w1, #8000                       // =0x1f40
	mov	x2, x19
	mov	x3, x20
	mov	x4, x21
	bl	_Z14test_variable4Il28custom_sub_multiple_variableIlEEvPT_iS2_S2_S2_S2_PKc
	adrp	x3, .L.str.124
	add	x3, x3, :lo12:.L.str.124
	mov	x0, x22
	mov	w1, #8000                       // =0x1f40
	mov	x2, x19
	bl	_Z14test_variable1Il24custom_multiply_variableIlEEvPT_iS2_PKc
	adrp	x6, .L.str.125
	add	x6, x6, :lo12:.L.str.125
	add	x5, x25, x19
	mov	x0, x22
	mov	w1, #8000                       // =0x1f40
	mov	x2, x19
	mov	x3, x20
	mov	x4, x21
	bl	_Z14test_variable4Il33custom_multiply_multiple_variableIlEEvPT_iS2_S2_S2_S2_PKc
	adrp	x6, .L.str.126
	add	x6, x6, :lo12:.L.str.126
	add	x5, x25, x19
	mov	x0, x22
	mov	w1, #8000                       // =0x1f40
	mov	x2, x19
	mov	x3, x20
	mov	x4, x21
	bl	_Z14test_variable4Il34custom_multiply_multiple_variable2IlEEvPT_iS2_S2_S2_S2_PKc
	adrp	x3, .L.str.127
	add	x3, x3, :lo12:.L.str.127
	mov	x0, x22
	mov	w1, #8000                       // =0x1f40
	mov	x2, x19
	bl	_Z14test_variable1Il22custom_divide_variableIlEEvPT_iS2_PKc
	adrp	x6, .L.str.128
	add	x6, x6, :lo12:.L.str.128
	add	x5, x25, x19
	mov	x0, x22
	mov	w1, #8000                       // =0x1f40
	mov	x2, x19
	mov	x3, x20
	mov	x4, x21
	bl	_Z14test_variable4Il31custom_divide_multiple_variableIlEEvPT_iS2_S2_S2_S2_PKc
	adrp	x6, .L.str.129
	add	x6, x6, :lo12:.L.str.129
	add	x5, x25, x19
	mov	x0, x22
	mov	w1, #8000                       // =0x1f40
	mov	x2, x19
	mov	x3, x20
	mov	x4, x21
	bl	_Z14test_variable4Il32custom_divide_multiple_variable2IlEEvPT_iS2_S2_S2_S2_PKc
	adrp	x6, .L.str.130
	add	x6, x6, :lo12:.L.str.130
	add	x5, x25, x19
	mov	x0, x22
	mov	w1, #8000                       // =0x1f40
	mov	x2, x19
	mov	x3, x20
	mov	x4, x21
	bl	_Z14test_variable4Il30custom_mixed_multiple_variableIlEEvPT_iS2_S2_S2_S2_PKc
	adrp	x3, .L.str.131
	add	x3, x3, :lo12:.L.str.131
	mov	x0, x22
	mov	w1, #8000                       // =0x1f40
	mov	x2, x19
	bl	_Z14test_variable1Il19custom_variable_andIlEEvPT_iS2_PKc
	adrp	x6, .L.str.132
	add	x6, x6, :lo12:.L.str.132
	add	x5, x25, x19
	mov	x0, x22
	mov	w1, #8000                       // =0x1f40
	mov	x2, x19
	mov	x3, x20
	mov	x4, x21
	bl	_Z14test_variable4Il28custom_multiple_variable_andIlEEvPT_iS2_S2_S2_S2_PKc
	adrp	x3, .L.str.133
	add	x3, x3, :lo12:.L.str.133
	mov	x0, x22
	mov	w1, #8000                       // =0x1f40
	mov	x2, x19
	bl	_Z14test_variable1Il18custom_variable_orIlEEvPT_iS2_PKc
	adrp	x6, .L.str.134
	add	x6, x6, :lo12:.L.str.134
	add	x5, x25, x19
	mov	x0, x22
	mov	w1, #8000                       // =0x1f40
	mov	x2, x19
	mov	x3, x20
	mov	x4, x21
	bl	_Z14test_variable4Il27custom_multiple_variable_orIlEEvPT_iS2_S2_S2_S2_PKc
	adrp	x3, .L.str.135
	add	x3, x3, :lo12:.L.str.135
	mov	x0, x22
	mov	w1, #8000                       // =0x1f40
	mov	x2, x19
	bl	_Z14test_variable1Il19custom_variable_xorIlEEvPT_iS2_PKc
	adrp	x6, .L.str.136
	add	x6, x6, :lo12:.L.str.136
	add	x5, x25, x19
	mov	x0, x22
	mov	w1, #8000                       // =0x1f40
	mov	x2, x19
	mov	x3, x20
	mov	x4, x21
	bl	_Z14test_variable4Il28custom_multiple_variable_xorIlEEvPT_iS2_S2_S2_S2_PKc
	ldr	d0, [x23, :lo12:init_value]
	fcvtzu	x8, d0
	dup	v0.2d, x8
	adrp	x8, data64unsigned+16
	add	x8, x8, :lo12:data64unsigned+16
.LBB5_15:                               // =>This Inner Loop Header: Depth=1
	subs	x24, x24, #4
	stp	q0, q0, [x8, #-16]
	add	x8, x8, #32
	b.ne	.LBB5_15
// %bb.16:
	fcvtzu	x19, d8
	adrp	x22, data64unsigned
	add	x22, x22, :lo12:data64unsigned
	adrp	x3, .L.str.137
	add	x3, x3, :lo12:.L.str.137
	mov	x0, x22
	mov	w1, #8000                       // =0x1f40
	mov	w24, #8000                      // =0x1f40
	lsl	x20, x19, #1
	add	x21, x19, #2
	mov	x2, x19
	udiv	x25, x20, x21
	bl	_Z14test_variable1Im19custom_add_variableImEEvPT_iS2_PKc
	adrp	x3, .L.str.138
	add	x3, x3, :lo12:.L.str.138
	mov	x0, x22
	mov	w1, #8000                       // =0x1f40
	mov	x2, x19
	bl	_Z22test_hoisted_variable1Im19custom_add_variableImEEvPT_iS2_PKc
	adrp	x6, .L.str.139
	add	x6, x6, :lo12:.L.str.139
	add	x5, x25, x19
	mov	x0, x22
	mov	w1, #8000                       // =0x1f40
	mov	x2, x19
	mov	x3, x20
	mov	x4, x21
	bl	_Z14test_variable4Im28custom_add_multiple_variableImEEvPT_iS2_S2_S2_S2_PKc
	adrp	x3, .L.str.140
	add	x3, x3, :lo12:.L.str.140
	mov	x0, x22
	mov	w1, #8000                       // =0x1f40
	mov	x2, x19
	bl	_Z14test_variable1Im19custom_sub_variableImEEvPT_iS2_PKc
	adrp	x6, .L.str.141
	add	x6, x6, :lo12:.L.str.141
	add	x5, x25, x19
	mov	x0, x22
	mov	w1, #8000                       // =0x1f40
	mov	x2, x19
	mov	x3, x20
	mov	x4, x21
	bl	_Z14test_variable4Im28custom_sub_multiple_variableImEEvPT_iS2_S2_S2_S2_PKc
	adrp	x3, .L.str.142
	add	x3, x3, :lo12:.L.str.142
	mov	x0, x22
	mov	w1, #8000                       // =0x1f40
	mov	x2, x19
	bl	_Z14test_variable1Im24custom_multiply_variableImEEvPT_iS2_PKc
	adrp	x6, .L.str.143
	add	x6, x6, :lo12:.L.str.143
	add	x5, x25, x19
	mov	x0, x22
	mov	w1, #8000                       // =0x1f40
	mov	x2, x19
	mov	x3, x20
	mov	x4, x21
	bl	_Z14test_variable4Im33custom_multiply_multiple_variableImEEvPT_iS2_S2_S2_S2_PKc
	adrp	x6, .L.str.144
	add	x6, x6, :lo12:.L.str.144
	add	x5, x25, x19
	mov	x0, x22
	mov	w1, #8000                       // =0x1f40
	mov	x2, x19
	mov	x3, x20
	mov	x4, x21
	bl	_Z14test_variable4Im34custom_multiply_multiple_variable2ImEEvPT_iS2_S2_S2_S2_PKc
	adrp	x3, .L.str.145
	add	x3, x3, :lo12:.L.str.145
	mov	x0, x22
	mov	w1, #8000                       // =0x1f40
	mov	x2, x19
	bl	_Z14test_variable1Im22custom_divide_variableImEEvPT_iS2_PKc
	adrp	x6, .L.str.146
	add	x6, x6, :lo12:.L.str.146
	add	x5, x25, x19
	mov	x0, x22
	mov	w1, #8000                       // =0x1f40
	mov	x2, x19
	mov	x3, x20
	mov	x4, x21
	bl	_Z14test_variable4Im31custom_divide_multiple_variableImEEvPT_iS2_S2_S2_S2_PKc
	adrp	x6, .L.str.147
	add	x6, x6, :lo12:.L.str.147
	add	x5, x25, x19
	mov	x0, x22
	mov	w1, #8000                       // =0x1f40
	mov	x2, x19
	mov	x3, x20
	mov	x4, x21
	bl	_Z14test_variable4Im32custom_divide_multiple_variable2ImEEvPT_iS2_S2_S2_S2_PKc
	adrp	x6, .L.str.148
	add	x6, x6, :lo12:.L.str.148
	add	x5, x25, x19
	mov	x0, x22
	mov	w1, #8000                       // =0x1f40
	mov	x2, x19
	mov	x3, x20
	mov	x4, x21
	bl	_Z14test_variable4Im30custom_mixed_multiple_variableImEEvPT_iS2_S2_S2_S2_PKc
	adrp	x3, .L.str.149
	add	x3, x3, :lo12:.L.str.149
	mov	x0, x22
	mov	w1, #8000                       // =0x1f40
	mov	x2, x19
	bl	_Z14test_variable1Im19custom_variable_andImEEvPT_iS2_PKc
	adrp	x6, .L.str.150
	add	x6, x6, :lo12:.L.str.150
	add	x5, x25, x19
	mov	x0, x22
	mov	w1, #8000                       // =0x1f40
	mov	x2, x19
	mov	x3, x20
	mov	x4, x21
	bl	_Z14test_variable4Im28custom_multiple_variable_andImEEvPT_iS2_S2_S2_S2_PKc
	adrp	x3, .L.str.151
	add	x3, x3, :lo12:.L.str.151
	mov	x0, x22
	mov	w1, #8000                       // =0x1f40
	mov	x2, x19
	bl	_Z14test_variable1Im18custom_variable_orImEEvPT_iS2_PKc
	adrp	x6, .L.str.152
	add	x6, x6, :lo12:.L.str.152
	add	x5, x25, x19
	mov	x0, x22
	mov	w1, #8000                       // =0x1f40
	mov	x2, x19
	mov	x3, x20
	mov	x4, x21
	bl	_Z14test_variable4Im27custom_multiple_variable_orImEEvPT_iS2_S2_S2_S2_PKc
	adrp	x3, .L.str.153
	add	x3, x3, :lo12:.L.str.153
	mov	x0, x22
	mov	w1, #8000                       // =0x1f40
	mov	x2, x19
	bl	_Z14test_variable1Im19custom_variable_xorImEEvPT_iS2_PKc
	adrp	x6, .L.str.154
	add	x6, x6, :lo12:.L.str.154
	add	x5, x25, x19
	mov	x0, x22
	mov	w1, #8000                       // =0x1f40
	mov	x2, x19
	mov	x3, x20
	mov	x4, x21
	bl	_Z14test_variable4Im28custom_multiple_variable_xorImEEvPT_iS2_S2_S2_S2_PKc
	ldr	d0, [x23, :lo12:init_value]
	adrp	x8, dataFloat+16
	add	x8, x8, :lo12:dataFloat+16
	fcvt	s0, d0
	dup	v0.4s, v0.s[0]
.LBB5_17:                               // =>This Inner Loop Header: Depth=1
	subs	x24, x24, #8
	stp	q0, q0, [x8, #-16]
	add	x8, x8, #32
	b.ne	.LBB5_17
// %bb.18:
	fcvt	s9, d8
	fmov	s0, #2.00000000
	adrp	x19, dataFloat
	add	x19, x19, :lo12:dataFloat
	adrp	x2, .L.str.155
	add	x2, x2, :lo12:.L.str.155
	mov	x0, x19
	mov	w1, #8000                       // =0x1f40
	mov	w20, #8000                      // =0x1f40
	fadd	s10, s9, s9
	fadd	s11, s9, s0
	fdiv	s0, s10, s11
	fadd	s12, s0, s9
	fmov	s0, s9
	bl	_Z14test_variable1If19custom_add_variableIfEEvPT_iS2_PKc
	fmov	s0, s9
	adrp	x2, .L.str.156
	add	x2, x2, :lo12:.L.str.156
	mov	x0, x19
	mov	w1, #8000                       // =0x1f40
	bl	_Z22test_hoisted_variable1If19custom_add_variableIfEEvPT_iS2_PKc
	fmov	s0, s9
	fmov	s1, s10
	adrp	x2, .L.str.157
	add	x2, x2, :lo12:.L.str.157
	fmov	s2, s11
	fmov	s3, s12
	mov	x0, x19
	mov	w1, #8000                       // =0x1f40
	bl	_Z14test_variable4If28custom_add_multiple_variableIfEEvPT_iS2_S2_S2_S2_PKc
	fmov	s0, s9
	adrp	x2, .L.str.158
	add	x2, x2, :lo12:.L.str.158
	mov	x0, x19
	mov	w1, #8000                       // =0x1f40
	bl	_Z14test_variable1If19custom_sub_variableIfEEvPT_iS2_PKc
	fmov	s0, s9
	fmov	s1, s10
	adrp	x2, .L.str.159
	add	x2, x2, :lo12:.L.str.159
	fmov	s2, s11
	fmov	s3, s12
	mov	x0, x19
	mov	w1, #8000                       // =0x1f40
	bl	_Z14test_variable4If28custom_sub_multiple_variableIfEEvPT_iS2_S2_S2_S2_PKc
	fmov	s0, s9
	adrp	x2, .L.str.160
	add	x2, x2, :lo12:.L.str.160
	mov	x0, x19
	mov	w1, #8000                       // =0x1f40
	bl	_Z14test_variable1If24custom_multiply_variableIfEEvPT_iS2_PKc
	fmov	s0, s9
	fmov	s1, s10
	adrp	x2, .L.str.161
	add	x2, x2, :lo12:.L.str.161
	fmov	s2, s11
	fmov	s3, s12
	mov	x0, x19
	mov	w1, #8000                       // =0x1f40
	bl	_Z14test_variable4If33custom_multiply_multiple_variableIfEEvPT_iS2_S2_S2_S2_PKc
	fmov	s0, s9
	fmov	s1, s10
	adrp	x2, .L.str.162
	add	x2, x2, :lo12:.L.str.162
	fmov	s2, s11
	fmov	s3, s12
	mov	x0, x19
	mov	w1, #8000                       // =0x1f40
	bl	_Z14test_variable4If34custom_multiply_multiple_variable2IfEEvPT_iS2_S2_S2_S2_PKc
	fmov	s0, s9
	adrp	x2, .L.str.163
	add	x2, x2, :lo12:.L.str.163
	mov	x0, x19
	mov	w1, #8000                       // =0x1f40
	bl	_Z14test_variable1If22custom_divide_variableIfEEvPT_iS2_PKc
	fmov	s0, s9
	fmov	s1, s10
	adrp	x2, .L.str.164
	add	x2, x2, :lo12:.L.str.164
	fmov	s2, s11
	fmov	s3, s12
	mov	x0, x19
	mov	w1, #8000                       // =0x1f40
	bl	_Z14test_variable4If31custom_divide_multiple_variableIfEEvPT_iS2_S2_S2_S2_PKc
	fmov	s0, s9
	fmov	s1, s10
	adrp	x2, .L.str.165
	add	x2, x2, :lo12:.L.str.165
	fmov	s2, s11
	fmov	s3, s12
	mov	x0, x19
	mov	w1, #8000                       // =0x1f40
	bl	_Z14test_variable4If32custom_divide_multiple_variable2IfEEvPT_iS2_S2_S2_S2_PKc
	fmov	s0, s9
	fmov	s1, s10
	adrp	x2, .L.str.166
	add	x2, x2, :lo12:.L.str.166
	fmov	s2, s11
	fmov	s3, s12
	mov	x0, x19
	mov	w1, #8000                       // =0x1f40
	bl	_Z14test_variable4If30custom_mixed_multiple_variableIfEEvPT_iS2_S2_S2_S2_PKc
	ldr	d0, [x23, :lo12:init_value]
	adrp	x8, dataDouble+16
	add	x8, x8, :lo12:dataDouble+16
	dup	v0.2d, v0.d[0]
.LBB5_19:                               // =>This Inner Loop Header: Depth=1
	subs	x20, x20, #4
	stp	q0, q0, [x8, #-16]
	add	x8, x8, #32
	b.ne	.LBB5_19
// %bb.20:
	fmov	d0, #2.00000000
	fadd	d9, d8, d8
	adrp	x19, dataDouble
	add	x19, x19, :lo12:dataDouble
	adrp	x2, .L.str.167
	add	x2, x2, :lo12:.L.str.167
	mov	x0, x19
	mov	w1, #8000                       // =0x1f40
	fadd	d10, d8, d0
	fdiv	d0, d9, d10
	fadd	d11, d8, d0
	fmov	d0, d8
	bl	_Z14test_variable1Id19custom_add_variableIdEEvPT_iS2_PKc
	fmov	d0, d8
	adrp	x2, .L.str.168
	add	x2, x2, :lo12:.L.str.168
	mov	x0, x19
	mov	w1, #8000                       // =0x1f40
	bl	_Z22test_hoisted_variable1Id19custom_add_variableIdEEvPT_iS2_PKc
	fmov	d0, d8
	fmov	d1, d9
	adrp	x2, .L.str.169
	add	x2, x2, :lo12:.L.str.169
	fmov	d2, d10
	fmov	d3, d11
	mov	x0, x19
	mov	w1, #8000                       // =0x1f40
	bl	_Z14test_variable4Id28custom_add_multiple_variableIdEEvPT_iS2_S2_S2_S2_PKc
	fmov	d0, d8
	adrp	x2, .L.str.170
	add	x2, x2, :lo12:.L.str.170
	mov	x0, x19
	mov	w1, #8000                       // =0x1f40
	bl	_Z14test_variable1Id19custom_sub_variableIdEEvPT_iS2_PKc
	fmov	d0, d8
	fmov	d1, d9
	adrp	x2, .L.str.171
	add	x2, x2, :lo12:.L.str.171
	fmov	d2, d10
	fmov	d3, d11
	mov	x0, x19
	mov	w1, #8000                       // =0x1f40
	bl	_Z14test_variable4Id28custom_sub_multiple_variableIdEEvPT_iS2_S2_S2_S2_PKc
	fmov	d0, d8
	adrp	x2, .L.str.172
	add	x2, x2, :lo12:.L.str.172
	mov	x0, x19
	mov	w1, #8000                       // =0x1f40
	bl	_Z14test_variable1Id24custom_multiply_variableIdEEvPT_iS2_PKc
	fmov	d0, d8
	fmov	d1, d9
	adrp	x2, .L.str.173
	add	x2, x2, :lo12:.L.str.173
	fmov	d2, d10
	fmov	d3, d11
	mov	x0, x19
	mov	w1, #8000                       // =0x1f40
	bl	_Z14test_variable4Id33custom_multiply_multiple_variableIdEEvPT_iS2_S2_S2_S2_PKc
	fmov	d0, d8
	fmov	d1, d9
	adrp	x2, .L.str.174
	add	x2, x2, :lo12:.L.str.174
	fmov	d2, d10
	fmov	d3, d11
	mov	x0, x19
	mov	w1, #8000                       // =0x1f40
	bl	_Z14test_variable4Id34custom_multiply_multiple_variable2IdEEvPT_iS2_S2_S2_S2_PKc
	fmov	d0, d8
	adrp	x2, .L.str.175
	add	x2, x2, :lo12:.L.str.175
	mov	x0, x19
	mov	w1, #8000                       // =0x1f40
	bl	_Z14test_variable1Id22custom_divide_variableIdEEvPT_iS2_PKc
	fmov	d0, d8
	fmov	d1, d9
	adrp	x2, .L.str.176
	add	x2, x2, :lo12:.L.str.176
	fmov	d2, d10
	fmov	d3, d11
	mov	x0, x19
	mov	w1, #8000                       // =0x1f40
	bl	_Z14test_variable4Id31custom_divide_multiple_variableIdEEvPT_iS2_S2_S2_S2_PKc
	fmov	d0, d8
	fmov	d1, d9
	adrp	x2, .L.str.177
	add	x2, x2, :lo12:.L.str.177
	fmov	d2, d10
	fmov	d3, d11
	mov	x0, x19
	mov	w1, #8000                       // =0x1f40
	bl	_Z14test_variable4Id32custom_divide_multiple_variable2IdEEvPT_iS2_S2_S2_S2_PKc
	fmov	d0, d8
	fmov	d1, d9
	adrp	x2, .L.str.178
	add	x2, x2, :lo12:.L.str.178
	fmov	d2, d10
	fmov	d3, d11
	mov	x0, x19
	mov	w1, #8000                       // =0x1f40
	bl	_Z14test_variable4Id30custom_mixed_multiple_variableIdEEvPT_iS2_S2_S2_S2_PKc
	mov	w0, wzr
	.cfi_def_cfa wsp, 112
	ldp	x20, x19, [sp, #96]             // 16-byte Folded Reload
	ldr	x25, [sp, #56]                  // 8-byte Folded Reload
	ldp	x22, x21, [sp, #80]             // 16-byte Folded Reload
	ldp	x24, x23, [sp, #64]             // 16-byte Folded Reload
	ldp	x29, x30, [sp, #40]             // 16-byte Folded Reload
	ldp	d9, d8, [sp, #24]               // 16-byte Folded Reload
	ldp	d11, d10, [sp, #8]              // 16-byte Folded Reload
	ldr	d12, [sp], #112                 // 8-byte Folded Reload
	.cfi_def_cfa_offset 0
	.cfi_restore w19
	.cfi_restore w20
	.cfi_restore w21
	.cfi_restore w22
	.cfi_restore w23
	.cfi_restore w24
	.cfi_restore w25
	.cfi_restore w30
	.cfi_restore w29
	.cfi_restore b8
	.cfi_restore b9
	.cfi_restore b10
	.cfi_restore b11
	.cfi_restore b12
	ret
.Lfunc_end5:
	.size	main, .Lfunc_end5-main
	.cfi_endproc
                                        // -- End function
	.section	.text._Z14test_variable1Ia19custom_add_variableIaEEvPT_iS2_PKc,"axG",@progbits,_Z14test_variable1Ia19custom_add_variableIaEEvPT_iS2_PKc,comdat
	.weak	_Z14test_variable1Ia19custom_add_variableIaEEvPT_iS2_PKc // -- Begin function _Z14test_variable1Ia19custom_add_variableIaEEvPT_iS2_PKc
	.p2align	2
	.type	_Z14test_variable1Ia19custom_add_variableIaEEvPT_iS2_PKc,@function
_Z14test_variable1Ia19custom_add_variableIaEEvPT_iS2_PKc: // @_Z14test_variable1Ia19custom_add_variableIaEEvPT_iS2_PKc
	.cfi_startproc
// %bb.0:
	sub	sp, sp, #144
	.cfi_def_cfa_offset 144
	stp	x29, x30, [sp, #48]             // 16-byte Folded Spill
	stp	x28, x27, [sp, #64]             // 16-byte Folded Spill
	stp	x26, x25, [sp, #80]             // 16-byte Folded Spill
	stp	x24, x23, [sp, #96]             // 16-byte Folded Spill
	stp	x22, x21, [sp, #112]            // 16-byte Folded Spill
	stp	x20, x19, [sp, #128]            // 16-byte Folded Spill
	add	x29, sp, #48
	.cfi_def_cfa w29, 96
	.cfi_offset w19, -8
	.cfi_offset w20, -16
	.cfi_offset w21, -24
	.cfi_offset w22, -32
	.cfi_offset w23, -40
	.cfi_offset w24, -48
	.cfi_offset w25, -56
	.cfi_offset w26, -64
	.cfi_offset w27, -72
	.cfi_offset w28, -80
	.cfi_offset w30, -88
	.cfi_offset w29, -96
	.cfi_remember_state
	str	x3, [sp, #8]                    // 8-byte Folded Spill
	mov	w20, w2
	mov	w21, w1
	mov	x22, x0
	bl	clock
	adrp	x26, iterations
	adrp	x9, start_time
	adrp	x25, current_test
	ldr	w8, [x26, :lo12:iterations]
	str	x0, [x9, :lo12:start_time]
	cmp	w8, #1
	b.lt	.LBB6_23
// %bb.1:
	cmp	w21, #0
	b.le	.LBB6_19
// %bb.2:
	mov	w28, w21
	dup	v4.16b, w20
	mov	w27, wzr
	and	x19, x28, #0x7ffffff8
	and	x9, x28, #0x18
	add	x10, x22, #16
	and	x23, x28, #0x7fffffe0
	str	x9, [sp]                        // 8-byte Folded Spill
	neg	x9, x19
	adrp	x24, init_value
	stp	x10, x9, [sp, #16]              // 16-byte Folded Spill
	stur	q4, [x29, #-16]                 // 16-byte Folded Spill
	b	.LBB6_4
.LBB6_3:                                //   in Loop: Header=BB6_4 Depth=1
	add	w27, w27, #1
	cmp	w27, w8
	b.ge	.LBB6_23
.LBB6_4:                                // =>This Loop Header: Depth=1
                                        //     Child Loop BB6_9 Depth 2
                                        //     Child Loop BB6_13 Depth 2
                                        //     Child Loop BB6_16 Depth 2
	cmp	w21, #7
	b.hi	.LBB6_6
// %bb.5:                               //   in Loop: Header=BB6_4 Depth=1
	mov	x11, xzr
	mov	w9, wzr
	b	.LBB6_15
.LBB6_6:                                //   in Loop: Header=BB6_4 Depth=1
	cmp	w21, #32
	b.hs	.LBB6_8
// %bb.7:                               //   in Loop: Header=BB6_4 Depth=1
	mov	x10, xzr
	mov	w9, wzr
	b	.LBB6_12
.LBB6_8:                                // %.preheader2
                                        //   in Loop: Header=BB6_4 Depth=1
	movi	v0.2d, #0000000000000000
	movi	v1.2d, #0000000000000000
	ldr	x9, [sp, #16]                   // 8-byte Folded Reload
	mov	x10, x23
.LBB6_9:                                //   Parent Loop BB6_4 Depth=1
                                        // =>  This Inner Loop Header: Depth=2
	add	v0.16b, v0.16b, v4.16b
	add	v1.16b, v1.16b, v4.16b
	subs	x10, x10, #32
	ldp	q2, q3, [x9, #-16]
	add	x9, x9, #32
	add	v0.16b, v0.16b, v2.16b
	add	v1.16b, v1.16b, v3.16b
	b.ne	.LBB6_9
// %bb.10:                              //   in Loop: Header=BB6_4 Depth=1
	add	v0.16b, v1.16b, v0.16b
	cmp	x23, x28
	addv	b0, v0.16b
	fmov	w9, s0
	b.eq	.LBB6_17
// %bb.11:                              //   in Loop: Header=BB6_4 Depth=1
	ldr	x12, [sp]                       // 8-byte Folded Reload
	mov	x11, x23
	mov	x10, x23
	cbz	x12, .LBB6_15
.LBB6_12:                               //   in Loop: Header=BB6_4 Depth=1
	movi	v0.2d, #0000000000000000
	mov	v0.b[0], w9
	ldr	x9, [sp, #24]                   // 8-byte Folded Reload
	add	x9, x9, x10
	add	x10, x22, x10
.LBB6_13:                               //   Parent Loop BB6_4 Depth=1
                                        // =>  This Inner Loop Header: Depth=2
	add	v0.8b, v0.8b, v4.8b
	ldr	d1, [x10], #8
	adds	x9, x9, #8
	add	v0.8b, v0.8b, v1.8b
	b.ne	.LBB6_13
// %bb.14:                              //   in Loop: Header=BB6_4 Depth=1
	addv	b0, v0.8b
	cmp	x19, x28
	mov	x11, x19
	fmov	w9, s0
	b.eq	.LBB6_17
.LBB6_15:                               // %.preheader
                                        //   in Loop: Header=BB6_4 Depth=1
	sub	x10, x28, x11
	add	x11, x22, x11
.LBB6_16:                               //   Parent Loop BB6_4 Depth=1
                                        // =>  This Inner Loop Header: Depth=2
	ldrb	w12, [x11], #1
	add	w9, w9, w20
	subs	x10, x10, #1
	add	w9, w9, w12
	b.ne	.LBB6_16
.LBB6_17:                               //   in Loop: Header=BB6_4 Depth=1
	ldr	d0, [x24, :lo12:init_value]
	fcvtzs	w10, d0
	add	w10, w20, w10
	ubfiz	w10, w10, #6, #2
	cmp	w10, w9, uxtb
	b.eq	.LBB6_3
// %bb.18:                              //   in Loop: Header=BB6_4 Depth=1
	ldr	w1, [x25, :lo12:current_test]
	adrp	x0, .L.str.179
	add	x0, x0, :lo12:.L.str.179
	bl	printf
	ldur	q4, [x29, #-16]                 // 16-byte Folded Reload
	ldr	w8, [x26, :lo12:iterations]
	b	.LBB6_3
.LBB6_19:
	adrp	x22, init_value
	mov	w19, wzr
	adrp	x21, .L.str.179
	add	x21, x21, :lo12:.L.str.179
	ldr	d0, [x22, :lo12:init_value]
	b	.LBB6_21
.LBB6_20:                               //   in Loop: Header=BB6_21 Depth=1
	add	w19, w19, #1
	cmp	w19, w8
	b.ge	.LBB6_23
.LBB6_21:                               // =>This Inner Loop Header: Depth=1
	fcvtzs	w9, d0
	add	w9, w20, w9
	tst	w9, #0x3
	b.eq	.LBB6_20
// %bb.22:                              //   in Loop: Header=BB6_21 Depth=1
	ldr	w1, [x25, :lo12:current_test]
	mov	x0, x21
	bl	printf
	ldr	d0, [x22, :lo12:init_value]
	ldr	w8, [x26, :lo12:iterations]
	b	.LBB6_20
.LBB6_23:
	bl	clock
	adrp	x22, results
	adrp	x21, allocated_results
	adrp	x9, start_time
	mov	x20, x0
	ldr	x0, [x22, :lo12:results]
	ldr	x19, [x9, :lo12:start_time]
	ldr	w9, [x21, :lo12:allocated_results]
	adrp	x8, end_time
	str	x20, [x8, :lo12:end_time]
	cbz	x0, .LBB6_25
// %bb.24:
	ldr	w8, [x25, :lo12:current_test]
	cmp	w8, w9
	b.lt	.LBB6_27
.LBB6_25:
	add	w8, w9, #10
	sbfiz	x1, x8, #4, #32
	str	w8, [x21, :lo12:allocated_results]
	bl	realloc
	str	x0, [x22, :lo12:results]
	cbz	x0, .LBB6_28
// %bb.26:
	ldr	w8, [x25, :lo12:current_test]
.LBB6_27:
	sub	x9, x20, x19
	ldr	x10, [sp, #8]                   // 8-byte Folded Reload
	scvtf	d0, x9
	mov	x9, #145685290680320            // =0x848000000000
	movk	x9, #16686, lsl #48
	fmov	d1, x9
	add	x9, x0, w8, sxtw #4
	add	w8, w8, #1
	str	x10, [x9, #8]
	fdiv	d0, d0, d1
	str	d0, [x9]
	str	w8, [x25, :lo12:current_test]
	.cfi_def_cfa wsp, 144
	ldp	x20, x19, [sp, #128]            // 16-byte Folded Reload
	ldp	x22, x21, [sp, #112]            // 16-byte Folded Reload
	ldp	x24, x23, [sp, #96]             // 16-byte Folded Reload
	ldp	x26, x25, [sp, #80]             // 16-byte Folded Reload
	ldp	x28, x27, [sp, #64]             // 16-byte Folded Reload
	ldp	x29, x30, [sp, #48]             // 16-byte Folded Reload
	add	sp, sp, #144
	.cfi_def_cfa_offset 0
	.cfi_restore w19
	.cfi_restore w20
	.cfi_restore w21
	.cfi_restore w22
	.cfi_restore w23
	.cfi_restore w24
	.cfi_restore w25
	.cfi_restore w26
	.cfi_restore w27
	.cfi_restore w28
	.cfi_restore w30
	.cfi_restore w29
	ret
.LBB6_28:
	.cfi_restore_state
	ldr	w1, [x21, :lo12:allocated_results]
	adrp	x0, .L.str
	add	x0, x0, :lo12:.L.str
	bl	printf
	mov	w0, #-1                         // =0xffffffff
	bl	exit
.Lfunc_end6:
	.size	_Z14test_variable1Ia19custom_add_variableIaEEvPT_iS2_PKc, .Lfunc_end6-_Z14test_variable1Ia19custom_add_variableIaEEvPT_iS2_PKc
	.cfi_endproc
                                        // -- End function
	.section	.text._Z22test_hoisted_variable1Ia19custom_add_variableIaEEvPT_iS2_PKc,"axG",@progbits,_Z22test_hoisted_variable1Ia19custom_add_variableIaEEvPT_iS2_PKc,comdat
	.weak	_Z22test_hoisted_variable1Ia19custom_add_variableIaEEvPT_iS2_PKc // -- Begin function _Z22test_hoisted_variable1Ia19custom_add_variableIaEEvPT_iS2_PKc
	.p2align	2
	.type	_Z22test_hoisted_variable1Ia19custom_add_variableIaEEvPT_iS2_PKc,@function
_Z22test_hoisted_variable1Ia19custom_add_variableIaEEvPT_iS2_PKc: // @_Z22test_hoisted_variable1Ia19custom_add_variableIaEEvPT_iS2_PKc
	.cfi_startproc
// %bb.0:
	sub	sp, sp, #128
	.cfi_def_cfa_offset 128
	stp	x29, x30, [sp, #32]             // 16-byte Folded Spill
	stp	x28, x27, [sp, #48]             // 16-byte Folded Spill
	stp	x26, x25, [sp, #64]             // 16-byte Folded Spill
	stp	x24, x23, [sp, #80]             // 16-byte Folded Spill
	stp	x22, x21, [sp, #96]             // 16-byte Folded Spill
	stp	x20, x19, [sp, #112]            // 16-byte Folded Spill
	add	x29, sp, #32
	.cfi_def_cfa w29, 96
	.cfi_offset w19, -8
	.cfi_offset w20, -16
	.cfi_offset w21, -24
	.cfi_offset w22, -32
	.cfi_offset w23, -40
	.cfi_offset w24, -48
	.cfi_offset w25, -56
	.cfi_offset w26, -64
	.cfi_offset w27, -72
	.cfi_offset w28, -80
	.cfi_offset w30, -88
	.cfi_offset w29, -96
	.cfi_remember_state
	str	x3, [sp, #16]                   // 8-byte Folded Spill
	mov	w20, w2
	mov	w21, w1
	mov	x22, x0
	bl	clock
	adrp	x8, iterations
	adrp	x9, start_time
	ldr	w8, [x8, :lo12:iterations]
	str	x0, [x9, :lo12:start_time]
	cmp	w8, #1
	b.lt	.LBB7_23
// %bb.1:
	mul	w27, w20, w21
	cmp	w21, #0
	b.le	.LBB7_19
// %bb.2:
	mov	w25, w21
	add	x9, x22, #16
	mov	w28, wzr
	and	x23, x25, #0x7ffffff8
	stur	x9, [x29, #-8]                  // 8-byte Folded Spill
	and	x19, x25, #0x7fffffe0
	and	x9, x25, #0x18
	neg	x24, x23
	adrp	x26, init_value
	str	x9, [sp, #8]                    // 8-byte Folded Spill
	b	.LBB7_4
.LBB7_3:                                //   in Loop: Header=BB7_4 Depth=1
	add	w28, w28, #1
	cmp	w28, w8
	b.ge	.LBB7_23
.LBB7_4:                                // =>This Loop Header: Depth=1
                                        //     Child Loop BB7_9 Depth 2
                                        //     Child Loop BB7_13 Depth 2
                                        //     Child Loop BB7_16 Depth 2
	cmp	w21, #7
	b.hi	.LBB7_6
// %bb.5:                               //   in Loop: Header=BB7_4 Depth=1
	mov	x11, xzr
	mov	w9, wzr
	b	.LBB7_15
.LBB7_6:                                //   in Loop: Header=BB7_4 Depth=1
	cmp	w21, #32
	b.hs	.LBB7_8
// %bb.7:                               //   in Loop: Header=BB7_4 Depth=1
	mov	x10, xzr
	mov	w9, wzr
	b	.LBB7_12
.LBB7_8:                                // %.preheader2
                                        //   in Loop: Header=BB7_4 Depth=1
	movi	v0.2d, #0000000000000000
	movi	v1.2d, #0000000000000000
	ldur	x9, [x29, #-8]                  // 8-byte Folded Reload
	mov	x10, x19
.LBB7_9:                                //   Parent Loop BB7_4 Depth=1
                                        // =>  This Inner Loop Header: Depth=2
	ldp	q2, q3, [x9, #-16]
	subs	x10, x10, #32
	add	x9, x9, #32
	add	v0.16b, v2.16b, v0.16b
	add	v1.16b, v3.16b, v1.16b
	b.ne	.LBB7_9
// %bb.10:                              //   in Loop: Header=BB7_4 Depth=1
	add	v0.16b, v1.16b, v0.16b
	cmp	x19, x25
	addv	b0, v0.16b
	fmov	w9, s0
	b.eq	.LBB7_17
// %bb.11:                              //   in Loop: Header=BB7_4 Depth=1
	ldr	x12, [sp, #8]                   // 8-byte Folded Reload
	mov	x11, x19
	mov	x10, x19
	cbz	x12, .LBB7_15
.LBB7_12:                               //   in Loop: Header=BB7_4 Depth=1
	movi	v0.2d, #0000000000000000
	mov	v0.b[0], w9
	add	x9, x24, x10
	add	x10, x22, x10
.LBB7_13:                               //   Parent Loop BB7_4 Depth=1
                                        // =>  This Inner Loop Header: Depth=2
	ldr	d1, [x10], #8
	adds	x9, x9, #8
	add	v0.8b, v1.8b, v0.8b
	b.ne	.LBB7_13
// %bb.14:                              //   in Loop: Header=BB7_4 Depth=1
	addv	b0, v0.8b
	cmp	x23, x25
	mov	x11, x23
	fmov	w9, s0
	b.eq	.LBB7_17
.LBB7_15:                               // %.preheader
                                        //   in Loop: Header=BB7_4 Depth=1
	sub	x10, x25, x11
	add	x11, x22, x11
.LBB7_16:                               //   Parent Loop BB7_4 Depth=1
                                        // =>  This Inner Loop Header: Depth=2
	ldrb	w12, [x11], #1
	subs	x10, x10, #1
	add	w9, w12, w9
	b.ne	.LBB7_16
.LBB7_17:                               //   in Loop: Header=BB7_4 Depth=1
	ldr	d0, [x26, :lo12:init_value]
	add	w9, w9, w27
	fcvtzs	w10, d0
	add	w10, w20, w10
	ubfiz	w10, w10, #6, #2
	cmp	w10, w9, uxtb
	b.eq	.LBB7_3
// %bb.18:                              //   in Loop: Header=BB7_4 Depth=1
	adrp	x8, current_test
	adrp	x0, .L.str.179
	add	x0, x0, :lo12:.L.str.179
	ldr	w1, [x8, :lo12:current_test]
	bl	printf
	adrp	x8, iterations
	ldr	w8, [x8, :lo12:iterations]
	b	.LBB7_3
.LBB7_19:
	adrp	x22, init_value
	mov	w19, wzr
	adrp	x21, .L.str.179
	add	x21, x21, :lo12:.L.str.179
	ldr	d0, [x22, :lo12:init_value]
	b	.LBB7_21
.LBB7_20:                               //   in Loop: Header=BB7_21 Depth=1
	add	w19, w19, #1
	cmp	w19, w8
	b.ge	.LBB7_23
.LBB7_21:                               // =>This Inner Loop Header: Depth=1
	fcvtzs	w9, d0
	add	w9, w20, w9
	ubfiz	w9, w9, #6, #2
	cmp	w9, w27, uxtb
	b.eq	.LBB7_20
// %bb.22:                              //   in Loop: Header=BB7_21 Depth=1
	adrp	x8, current_test
	mov	x0, x21
	ldr	w1, [x8, :lo12:current_test]
	bl	printf
	adrp	x8, iterations
	ldr	d0, [x22, :lo12:init_value]
	ldr	w8, [x8, :lo12:iterations]
	b	.LBB7_20
.LBB7_23:
	bl	clock
	adrp	x22, results
	adrp	x21, allocated_results
	adrp	x9, start_time
	mov	x20, x0
	ldr	x0, [x22, :lo12:results]
	ldr	x19, [x9, :lo12:start_time]
	ldr	w9, [x21, :lo12:allocated_results]
	adrp	x8, end_time
	adrp	x23, current_test
	str	x20, [x8, :lo12:end_time]
	cbz	x0, .LBB7_25
// %bb.24:
	ldr	w8, [x23, :lo12:current_test]
	cmp	w8, w9
	b.lt	.LBB7_27
.LBB7_25:
	add	w8, w9, #10
	sbfiz	x1, x8, #4, #32
	str	w8, [x21, :lo12:allocated_results]
	bl	realloc
	str	x0, [x22, :lo12:results]
	cbz	x0, .LBB7_28
// %bb.26:
	ldr	w8, [x23, :lo12:current_test]
.LBB7_27:
	sub	x9, x20, x19
	ldr	x10, [sp, #16]                  // 8-byte Folded Reload
	scvtf	d0, x9
	mov	x9, #145685290680320            // =0x848000000000
	movk	x9, #16686, lsl #48
	fmov	d1, x9
	add	x9, x0, w8, sxtw #4
	add	w8, w8, #1
	str	x10, [x9, #8]
	fdiv	d0, d0, d1
	str	d0, [x9]
	str	w8, [x23, :lo12:current_test]
	.cfi_def_cfa wsp, 128
	ldp	x20, x19, [sp, #112]            // 16-byte Folded Reload
	ldp	x22, x21, [sp, #96]             // 16-byte Folded Reload
	ldp	x24, x23, [sp, #80]             // 16-byte Folded Reload
	ldp	x26, x25, [sp, #64]             // 16-byte Folded Reload
	ldp	x28, x27, [sp, #48]             // 16-byte Folded Reload
	ldp	x29, x30, [sp, #32]             // 16-byte Folded Reload
	add	sp, sp, #128
	.cfi_def_cfa_offset 0
	.cfi_restore w19
	.cfi_restore w20
	.cfi_restore w21
	.cfi_restore w22
	.cfi_restore w23
	.cfi_restore w24
	.cfi_restore w25
	.cfi_restore w26
	.cfi_restore w27
	.cfi_restore w28
	.cfi_restore w30
	.cfi_restore w29
	ret
.LBB7_28:
	.cfi_restore_state
	ldr	w1, [x21, :lo12:allocated_results]
	adrp	x0, .L.str
	add	x0, x0, :lo12:.L.str
	bl	printf
	mov	w0, #-1                         // =0xffffffff
	bl	exit
.Lfunc_end7:
	.size	_Z22test_hoisted_variable1Ia19custom_add_variableIaEEvPT_iS2_PKc, .Lfunc_end7-_Z22test_hoisted_variable1Ia19custom_add_variableIaEEvPT_iS2_PKc
	.cfi_endproc
                                        // -- End function
	.section	.text._Z14test_variable4Ia28custom_add_multiple_variableIaEEvPT_iS2_S2_S2_S2_PKc,"axG",@progbits,_Z14test_variable4Ia28custom_add_multiple_variableIaEEvPT_iS2_S2_S2_S2_PKc,comdat
	.weak	_Z14test_variable4Ia28custom_add_multiple_variableIaEEvPT_iS2_S2_S2_S2_PKc // -- Begin function _Z14test_variable4Ia28custom_add_multiple_variableIaEEvPT_iS2_S2_S2_S2_PKc
	.p2align	2
	.type	_Z14test_variable4Ia28custom_add_multiple_variableIaEEvPT_iS2_S2_S2_S2_PKc,@function
_Z14test_variable4Ia28custom_add_multiple_variableIaEEvPT_iS2_S2_S2_S2_PKc: // @_Z14test_variable4Ia28custom_add_multiple_variableIaEEvPT_iS2_S2_S2_S2_PKc
	.cfi_startproc
// %bb.0:
	sub	sp, sp, #144
	.cfi_def_cfa_offset 144
	stp	x29, x30, [sp, #48]             // 16-byte Folded Spill
	stp	x28, x27, [sp, #64]             // 16-byte Folded Spill
	stp	x26, x25, [sp, #80]             // 16-byte Folded Spill
	stp	x24, x23, [sp, #96]             // 16-byte Folded Spill
	stp	x22, x21, [sp, #112]            // 16-byte Folded Spill
	stp	x20, x19, [sp, #128]            // 16-byte Folded Spill
	add	x29, sp, #48
	.cfi_def_cfa w29, 96
	.cfi_offset w19, -8
	.cfi_offset w20, -16
	.cfi_offset w21, -24
	.cfi_offset w22, -32
	.cfi_offset w23, -40
	.cfi_offset w24, -48
	.cfi_offset w25, -56
	.cfi_offset w26, -64
	.cfi_offset w27, -72
	.cfi_offset w28, -80
	.cfi_offset w30, -88
	.cfi_offset w29, -96
	.cfi_remember_state
	str	x6, [sp, #8]                    // 8-byte Folded Spill
	mov	w22, w5
	mov	w24, w4
	mov	w23, w3
	mov	w25, w2
	mov	w20, w1
	mov	x21, x0
	bl	clock
	adrp	x28, iterations
	adrp	x9, start_time
	adrp	x27, current_test
	ldr	w8, [x28, :lo12:iterations]
	str	x0, [x9, :lo12:start_time]
	cmp	w8, #1
	b.lt	.LBB8_23
// %bb.1:
	add	w9, w24, w22
	add	w10, w23, w25
	cmp	w20, #0
	add	w23, w10, w9
	b.le	.LBB8_19
// %bb.2:
	mov	w25, w20
	dup	v4.16b, w23
	mov	w24, wzr
	and	x19, x25, #0x7ffffff8
	and	x9, x25, #0x18
	add	x10, x21, #16
	and	x22, x25, #0x7fffffe0
	str	x9, [sp]                        // 8-byte Folded Spill
	neg	x9, x19
	adrp	x26, init_value
	stp	x10, x9, [sp, #16]              // 16-byte Folded Spill
	stur	q4, [x29, #-16]                 // 16-byte Folded Spill
	b	.LBB8_4
.LBB8_3:                                //   in Loop: Header=BB8_4 Depth=1
	add	w24, w24, #1
	cmp	w24, w8
	b.ge	.LBB8_23
.LBB8_4:                                // =>This Loop Header: Depth=1
                                        //     Child Loop BB8_9 Depth 2
                                        //     Child Loop BB8_13 Depth 2
                                        //     Child Loop BB8_16 Depth 2
	cmp	w20, #7
	b.hi	.LBB8_6
// %bb.5:                               //   in Loop: Header=BB8_4 Depth=1
	mov	x11, xzr
	mov	w9, wzr
	b	.LBB8_15
.LBB8_6:                                //   in Loop: Header=BB8_4 Depth=1
	cmp	w20, #32
	b.hs	.LBB8_8
// %bb.7:                               //   in Loop: Header=BB8_4 Depth=1
	mov	x10, xzr
	mov	w9, wzr
	b	.LBB8_12
.LBB8_8:                                // %.preheader2
                                        //   in Loop: Header=BB8_4 Depth=1
	movi	v0.2d, #0000000000000000
	movi	v1.2d, #0000000000000000
	ldr	x9, [sp, #16]                   // 8-byte Folded Reload
	mov	x10, x22
.LBB8_9:                                //   Parent Loop BB8_4 Depth=1
                                        // =>  This Inner Loop Header: Depth=2
	add	v0.16b, v4.16b, v0.16b
	add	v1.16b, v4.16b, v1.16b
	subs	x10, x10, #32
	ldp	q2, q3, [x9, #-16]
	add	x9, x9, #32
	add	v0.16b, v0.16b, v2.16b
	add	v1.16b, v1.16b, v3.16b
	b.ne	.LBB8_9
// %bb.10:                              //   in Loop: Header=BB8_4 Depth=1
	add	v0.16b, v1.16b, v0.16b
	cmp	x22, x25
	addv	b0, v0.16b
	fmov	w9, s0
	b.eq	.LBB8_17
// %bb.11:                              //   in Loop: Header=BB8_4 Depth=1
	ldr	x12, [sp]                       // 8-byte Folded Reload
	mov	x11, x22
	mov	x10, x22
	cbz	x12, .LBB8_15
.LBB8_12:                               //   in Loop: Header=BB8_4 Depth=1
	movi	v0.2d, #0000000000000000
	mov	v0.b[0], w9
	ldr	x9, [sp, #24]                   // 8-byte Folded Reload
	add	x9, x9, x10
	add	x10, x21, x10
.LBB8_13:                               //   Parent Loop BB8_4 Depth=1
                                        // =>  This Inner Loop Header: Depth=2
	add	v0.8b, v4.8b, v0.8b
	ldr	d1, [x10], #8
	adds	x9, x9, #8
	add	v0.8b, v0.8b, v1.8b
	b.ne	.LBB8_13
// %bb.14:                              //   in Loop: Header=BB8_4 Depth=1
	addv	b0, v0.8b
	cmp	x19, x25
	mov	x11, x19
	fmov	w9, s0
	b.eq	.LBB8_17
.LBB8_15:                               // %.preheader
                                        //   in Loop: Header=BB8_4 Depth=1
	sub	x10, x25, x11
	add	x11, x21, x11
.LBB8_16:                               //   Parent Loop BB8_4 Depth=1
                                        // =>  This Inner Loop Header: Depth=2
	ldrb	w12, [x11], #1
	add	w9, w23, w9
	subs	x10, x10, #1
	add	w9, w9, w12
	b.ne	.LBB8_16
.LBB8_17:                               //   in Loop: Header=BB8_4 Depth=1
	ldr	d0, [x26, :lo12:init_value]
	fcvtzs	w10, d0
	add	w10, w23, w10
	ubfiz	w10, w10, #6, #2
	cmp	w10, w9, uxtb
	b.eq	.LBB8_3
// %bb.18:                              //   in Loop: Header=BB8_4 Depth=1
	ldr	w1, [x27, :lo12:current_test]
	adrp	x0, .L.str.179
	add	x0, x0, :lo12:.L.str.179
	bl	printf
	ldur	q4, [x29, #-16]                 // 16-byte Folded Reload
	ldr	w8, [x28, :lo12:iterations]
	b	.LBB8_3
.LBB8_19:
	adrp	x21, init_value
	mov	w19, wzr
	adrp	x20, .L.str.179
	add	x20, x20, :lo12:.L.str.179
	ldr	d0, [x21, :lo12:init_value]
	b	.LBB8_21
.LBB8_20:                               //   in Loop: Header=BB8_21 Depth=1
	add	w19, w19, #1
	cmp	w19, w8
	b.ge	.LBB8_23
.LBB8_21:                               // =>This Inner Loop Header: Depth=1
	fcvtzs	w9, d0
	add	w9, w23, w9
	tst	w9, #0x3
	b.eq	.LBB8_20
// %bb.22:                              //   in Loop: Header=BB8_21 Depth=1
	ldr	w1, [x27, :lo12:current_test]
	mov	x0, x20
	bl	printf
	ldr	d0, [x21, :lo12:init_value]
	ldr	w8, [x28, :lo12:iterations]
	b	.LBB8_20
.LBB8_23:
	bl	clock
	adrp	x22, results
	adrp	x21, allocated_results
	adrp	x9, start_time
	mov	x20, x0
	ldr	x0, [x22, :lo12:results]
	ldr	x19, [x9, :lo12:start_time]
	ldr	w9, [x21, :lo12:allocated_results]
	adrp	x8, end_time
	str	x20, [x8, :lo12:end_time]
	cbz	x0, .LBB8_25
// %bb.24:
	ldr	w8, [x27, :lo12:current_test]
	cmp	w8, w9
	b.lt	.LBB8_27
.LBB8_25:
	add	w8, w9, #10
	sbfiz	x1, x8, #4, #32
	str	w8, [x21, :lo12:allocated_results]
	bl	realloc
	str	x0, [x22, :lo12:results]
	cbz	x0, .LBB8_28
// %bb.26:
	ldr	w8, [x27, :lo12:current_test]
.LBB8_27:
	sub	x9, x20, x19
	ldr	x10, [sp, #8]                   // 8-byte Folded Reload
	scvtf	d0, x9
	mov	x9, #145685290680320            // =0x848000000000
	movk	x9, #16686, lsl #48
	fmov	d1, x9
	add	x9, x0, w8, sxtw #4
	add	w8, w8, #1
	str	x10, [x9, #8]
	fdiv	d0, d0, d1
	str	d0, [x9]
	str	w8, [x27, :lo12:current_test]
	.cfi_def_cfa wsp, 144
	ldp	x20, x19, [sp, #128]            // 16-byte Folded Reload
	ldp	x22, x21, [sp, #112]            // 16-byte Folded Reload
	ldp	x24, x23, [sp, #96]             // 16-byte Folded Reload
	ldp	x26, x25, [sp, #80]             // 16-byte Folded Reload
	ldp	x28, x27, [sp, #64]             // 16-byte Folded Reload
	ldp	x29, x30, [sp, #48]             // 16-byte Folded Reload
	add	sp, sp, #144
	.cfi_def_cfa_offset 0
	.cfi_restore w19
	.cfi_restore w20
	.cfi_restore w21
	.cfi_restore w22
	.cfi_restore w23
	.cfi_restore w24
	.cfi_restore w25
	.cfi_restore w26
	.cfi_restore w27
	.cfi_restore w28
	.cfi_restore w30
	.cfi_restore w29
	ret
.LBB8_28:
	.cfi_restore_state
	ldr	w1, [x21, :lo12:allocated_results]
	adrp	x0, .L.str
	add	x0, x0, :lo12:.L.str
	bl	printf
	mov	w0, #-1                         // =0xffffffff
	bl	exit
.Lfunc_end8:
	.size	_Z14test_variable4Ia28custom_add_multiple_variableIaEEvPT_iS2_S2_S2_S2_PKc, .Lfunc_end8-_Z14test_variable4Ia28custom_add_multiple_variableIaEEvPT_iS2_S2_S2_S2_PKc
	.cfi_endproc
                                        // -- End function
	.section	.text._Z14test_variable1Ia19custom_sub_variableIaEEvPT_iS2_PKc,"axG",@progbits,_Z14test_variable1Ia19custom_sub_variableIaEEvPT_iS2_PKc,comdat
	.weak	_Z14test_variable1Ia19custom_sub_variableIaEEvPT_iS2_PKc // -- Begin function _Z14test_variable1Ia19custom_sub_variableIaEEvPT_iS2_PKc
	.p2align	2
	.type	_Z14test_variable1Ia19custom_sub_variableIaEEvPT_iS2_PKc,@function
_Z14test_variable1Ia19custom_sub_variableIaEEvPT_iS2_PKc: // @_Z14test_variable1Ia19custom_sub_variableIaEEvPT_iS2_PKc
	.cfi_startproc
// %bb.0:
	sub	sp, sp, #144
	.cfi_def_cfa_offset 144
	stp	x29, x30, [sp, #48]             // 16-byte Folded Spill
	stp	x28, x27, [sp, #64]             // 16-byte Folded Spill
	stp	x26, x25, [sp, #80]             // 16-byte Folded Spill
	stp	x24, x23, [sp, #96]             // 16-byte Folded Spill
	stp	x22, x21, [sp, #112]            // 16-byte Folded Spill
	stp	x20, x19, [sp, #128]            // 16-byte Folded Spill
	add	x29, sp, #48
	.cfi_def_cfa w29, 96
	.cfi_offset w19, -8
	.cfi_offset w20, -16
	.cfi_offset w21, -24
	.cfi_offset w22, -32
	.cfi_offset w23, -40
	.cfi_offset w24, -48
	.cfi_offset w25, -56
	.cfi_offset w26, -64
	.cfi_offset w27, -72
	.cfi_offset w28, -80
	.cfi_offset w30, -88
	.cfi_offset w29, -96
	.cfi_remember_state
	str	x3, [sp, #8]                    // 8-byte Folded Spill
	mov	w20, w2
	mov	w21, w1
	mov	x22, x0
	bl	clock
	adrp	x26, iterations
	adrp	x9, start_time
	adrp	x25, current_test
	ldr	w8, [x26, :lo12:iterations]
	str	x0, [x9, :lo12:start_time]
	cmp	w8, #1
	b.lt	.LBB9_23
// %bb.1:
	cmp	w21, #0
	b.le	.LBB9_19
// %bb.2:
	mov	w28, w21
	dup	v4.16b, w20
	mov	w27, wzr
	and	x19, x28, #0x7ffffff8
	and	x9, x28, #0x18
	add	x10, x22, #16
	and	x23, x28, #0x7fffffe0
	str	x9, [sp]                        // 8-byte Folded Spill
	neg	x9, x19
	adrp	x24, init_value
	stp	x10, x9, [sp, #16]              // 16-byte Folded Spill
	stur	q4, [x29, #-16]                 // 16-byte Folded Spill
	b	.LBB9_4
.LBB9_3:                                //   in Loop: Header=BB9_4 Depth=1
	add	w27, w27, #1
	cmp	w27, w8
	b.ge	.LBB9_23
.LBB9_4:                                // =>This Loop Header: Depth=1
                                        //     Child Loop BB9_9 Depth 2
                                        //     Child Loop BB9_13 Depth 2
                                        //     Child Loop BB9_16 Depth 2
	cmp	w21, #7
	b.hi	.LBB9_6
// %bb.5:                               //   in Loop: Header=BB9_4 Depth=1
	mov	x11, xzr
	mov	w9, wzr
	b	.LBB9_15
.LBB9_6:                                //   in Loop: Header=BB9_4 Depth=1
	cmp	w21, #32
	b.hs	.LBB9_8
// %bb.7:                               //   in Loop: Header=BB9_4 Depth=1
	mov	x10, xzr
	mov	w9, wzr
	b	.LBB9_12
.LBB9_8:                                // %.preheader2
                                        //   in Loop: Header=BB9_4 Depth=1
	movi	v0.2d, #0000000000000000
	movi	v1.2d, #0000000000000000
	ldr	x9, [sp, #16]                   // 8-byte Folded Reload
	mov	x10, x23
.LBB9_9:                                //   Parent Loop BB9_4 Depth=1
                                        // =>  This Inner Loop Header: Depth=2
	sub	v0.16b, v0.16b, v4.16b
	sub	v1.16b, v1.16b, v4.16b
	subs	x10, x10, #32
	ldp	q2, q3, [x9, #-16]
	add	x9, x9, #32
	add	v0.16b, v0.16b, v2.16b
	add	v1.16b, v1.16b, v3.16b
	b.ne	.LBB9_9
// %bb.10:                              //   in Loop: Header=BB9_4 Depth=1
	add	v0.16b, v1.16b, v0.16b
	cmp	x23, x28
	addv	b0, v0.16b
	fmov	w9, s0
	b.eq	.LBB9_17
// %bb.11:                              //   in Loop: Header=BB9_4 Depth=1
	ldr	x12, [sp]                       // 8-byte Folded Reload
	mov	x11, x23
	mov	x10, x23
	cbz	x12, .LBB9_15
.LBB9_12:                               //   in Loop: Header=BB9_4 Depth=1
	movi	v0.2d, #0000000000000000
	mov	v0.b[0], w9
	ldr	x9, [sp, #24]                   // 8-byte Folded Reload
	add	x9, x9, x10
	add	x10, x22, x10
.LBB9_13:                               //   Parent Loop BB9_4 Depth=1
                                        // =>  This Inner Loop Header: Depth=2
	sub	v0.8b, v0.8b, v4.8b
	ldr	d1, [x10], #8
	adds	x9, x9, #8
	add	v0.8b, v0.8b, v1.8b
	b.ne	.LBB9_13
// %bb.14:                              //   in Loop: Header=BB9_4 Depth=1
	addv	b0, v0.8b
	cmp	x19, x28
	mov	x11, x19
	fmov	w9, s0
	b.eq	.LBB9_17
.LBB9_15:                               // %.preheader
                                        //   in Loop: Header=BB9_4 Depth=1
	sub	x10, x28, x11
	add	x11, x22, x11
.LBB9_16:                               //   Parent Loop BB9_4 Depth=1
                                        // =>  This Inner Loop Header: Depth=2
	ldrb	w12, [x11], #1
	sub	w9, w9, w20
	subs	x10, x10, #1
	add	w9, w9, w12
	b.ne	.LBB9_16
.LBB9_17:                               //   in Loop: Header=BB9_4 Depth=1
	ldr	d0, [x24, :lo12:init_value]
	fcvtzs	w10, d0
	sub	w10, w10, w20
	ubfiz	w10, w10, #6, #2
	cmp	w10, w9, uxtb
	b.eq	.LBB9_3
// %bb.18:                              //   in Loop: Header=BB9_4 Depth=1
	ldr	w1, [x25, :lo12:current_test]
	adrp	x0, .L.str.179
	add	x0, x0, :lo12:.L.str.179
	bl	printf
	ldur	q4, [x29, #-16]                 // 16-byte Folded Reload
	ldr	w8, [x26, :lo12:iterations]
	b	.LBB9_3
.LBB9_19:
	adrp	x22, init_value
	mov	w19, wzr
	adrp	x21, .L.str.179
	add	x21, x21, :lo12:.L.str.179
	ldr	d0, [x22, :lo12:init_value]
	b	.LBB9_21
.LBB9_20:                               //   in Loop: Header=BB9_21 Depth=1
	add	w19, w19, #1
	cmp	w19, w8
	b.ge	.LBB9_23
.LBB9_21:                               // =>This Inner Loop Header: Depth=1
	fcvtzs	w9, d0
	sub	w9, w9, w20
	tst	w9, #0x3
	b.eq	.LBB9_20
// %bb.22:                              //   in Loop: Header=BB9_21 Depth=1
	ldr	w1, [x25, :lo12:current_test]
	mov	x0, x21
	bl	printf
	ldr	d0, [x22, :lo12:init_value]
	ldr	w8, [x26, :lo12:iterations]
	b	.LBB9_20
.LBB9_23:
	bl	clock
	adrp	x22, results
	adrp	x21, allocated_results
	adrp	x9, start_time
	mov	x20, x0
	ldr	x0, [x22, :lo12:results]
	ldr	x19, [x9, :lo12:start_time]
	ldr	w9, [x21, :lo12:allocated_results]
	adrp	x8, end_time
	str	x20, [x8, :lo12:end_time]
	cbz	x0, .LBB9_25
// %bb.24:
	ldr	w8, [x25, :lo12:current_test]
	cmp	w8, w9
	b.lt	.LBB9_27
.LBB9_25:
	add	w8, w9, #10
	sbfiz	x1, x8, #4, #32
	str	w8, [x21, :lo12:allocated_results]
	bl	realloc
	str	x0, [x22, :lo12:results]
	cbz	x0, .LBB9_28
// %bb.26:
	ldr	w8, [x25, :lo12:current_test]
.LBB9_27:
	sub	x9, x20, x19
	ldr	x10, [sp, #8]                   // 8-byte Folded Reload
	scvtf	d0, x9
	mov	x9, #145685290680320            // =0x848000000000
	movk	x9, #16686, lsl #48
	fmov	d1, x9
	add	x9, x0, w8, sxtw #4
	add	w8, w8, #1
	str	x10, [x9, #8]
	fdiv	d0, d0, d1
	str	d0, [x9]
	str	w8, [x25, :lo12:current_test]
	.cfi_def_cfa wsp, 144
	ldp	x20, x19, [sp, #128]            // 16-byte Folded Reload
	ldp	x22, x21, [sp, #112]            // 16-byte Folded Reload
	ldp	x24, x23, [sp, #96]             // 16-byte Folded Reload
	ldp	x26, x25, [sp, #80]             // 16-byte Folded Reload
	ldp	x28, x27, [sp, #64]             // 16-byte Folded Reload
	ldp	x29, x30, [sp, #48]             // 16-byte Folded Reload
	add	sp, sp, #144
	.cfi_def_cfa_offset 0
	.cfi_restore w19
	.cfi_restore w20
	.cfi_restore w21
	.cfi_restore w22
	.cfi_restore w23
	.cfi_restore w24
	.cfi_restore w25
	.cfi_restore w26
	.cfi_restore w27
	.cfi_restore w28
	.cfi_restore w30
	.cfi_restore w29
	ret
.LBB9_28:
	.cfi_restore_state
	ldr	w1, [x21, :lo12:allocated_results]
	adrp	x0, .L.str
	add	x0, x0, :lo12:.L.str
	bl	printf
	mov	w0, #-1                         // =0xffffffff
	bl	exit
.Lfunc_end9:
	.size	_Z14test_variable1Ia19custom_sub_variableIaEEvPT_iS2_PKc, .Lfunc_end9-_Z14test_variable1Ia19custom_sub_variableIaEEvPT_iS2_PKc
	.cfi_endproc
                                        // -- End function
	.section	.text._Z14test_variable4Ia28custom_sub_multiple_variableIaEEvPT_iS2_S2_S2_S2_PKc,"axG",@progbits,_Z14test_variable4Ia28custom_sub_multiple_variableIaEEvPT_iS2_S2_S2_S2_PKc,comdat
	.weak	_Z14test_variable4Ia28custom_sub_multiple_variableIaEEvPT_iS2_S2_S2_S2_PKc // -- Begin function _Z14test_variable4Ia28custom_sub_multiple_variableIaEEvPT_iS2_S2_S2_S2_PKc
	.p2align	2
	.type	_Z14test_variable4Ia28custom_sub_multiple_variableIaEEvPT_iS2_S2_S2_S2_PKc,@function
_Z14test_variable4Ia28custom_sub_multiple_variableIaEEvPT_iS2_S2_S2_S2_PKc: // @_Z14test_variable4Ia28custom_sub_multiple_variableIaEEvPT_iS2_S2_S2_S2_PKc
	.cfi_startproc
// %bb.0:
	sub	sp, sp, #144
	.cfi_def_cfa_offset 144
	stp	x29, x30, [sp, #48]             // 16-byte Folded Spill
	stp	x28, x27, [sp, #64]             // 16-byte Folded Spill
	stp	x26, x25, [sp, #80]             // 16-byte Folded Spill
	stp	x24, x23, [sp, #96]             // 16-byte Folded Spill
	stp	x22, x21, [sp, #112]            // 16-byte Folded Spill
	stp	x20, x19, [sp, #128]            // 16-byte Folded Spill
	add	x29, sp, #48
	.cfi_def_cfa w29, 96
	.cfi_offset w19, -8
	.cfi_offset w20, -16
	.cfi_offset w21, -24
	.cfi_offset w22, -32
	.cfi_offset w23, -40
	.cfi_offset w24, -48
	.cfi_offset w25, -56
	.cfi_offset w26, -64
	.cfi_offset w27, -72
	.cfi_offset w28, -80
	.cfi_offset w30, -88
	.cfi_offset w29, -96
	.cfi_remember_state
	str	x6, [sp, #8]                    // 8-byte Folded Spill
	mov	w22, w5
	mov	w24, w4
	mov	w23, w3
	mov	w25, w2
	mov	w20, w1
	mov	x21, x0
	bl	clock
	adrp	x28, iterations
	adrp	x9, start_time
	adrp	x27, current_test
	ldr	w8, [x28, :lo12:iterations]
	str	x0, [x9, :lo12:start_time]
	cmp	w8, #1
	b.lt	.LBB10_23
// %bb.1:
	add	w9, w24, w22
	add	w10, w23, w25
	cmp	w20, #0
	add	w23, w10, w9
	b.le	.LBB10_19
// %bb.2:
	mov	w25, w20
	dup	v4.16b, w23
	mov	w24, wzr
	and	x19, x25, #0x7ffffff8
	and	x9, x25, #0x18
	add	x10, x21, #16
	and	x22, x25, #0x7fffffe0
	str	x9, [sp]                        // 8-byte Folded Spill
	neg	x9, x19
	adrp	x26, init_value
	stp	x10, x9, [sp, #16]              // 16-byte Folded Spill
	stur	q4, [x29, #-16]                 // 16-byte Folded Spill
	b	.LBB10_4
.LBB10_3:                               //   in Loop: Header=BB10_4 Depth=1
	add	w24, w24, #1
	cmp	w24, w8
	b.ge	.LBB10_23
.LBB10_4:                               // =>This Loop Header: Depth=1
                                        //     Child Loop BB10_9 Depth 2
                                        //     Child Loop BB10_13 Depth 2
                                        //     Child Loop BB10_16 Depth 2
	cmp	w20, #7
	b.hi	.LBB10_6
// %bb.5:                               //   in Loop: Header=BB10_4 Depth=1
	mov	x11, xzr
	mov	w9, wzr
	b	.LBB10_15
.LBB10_6:                               //   in Loop: Header=BB10_4 Depth=1
	cmp	w20, #32
	b.hs	.LBB10_8
// %bb.7:                               //   in Loop: Header=BB10_4 Depth=1
	mov	x10, xzr
	mov	w9, wzr
	b	.LBB10_12
.LBB10_8:                               // %.preheader2
                                        //   in Loop: Header=BB10_4 Depth=1
	movi	v0.2d, #0000000000000000
	movi	v1.2d, #0000000000000000
	ldr	x9, [sp, #16]                   // 8-byte Folded Reload
	mov	x10, x22
.LBB10_9:                               //   Parent Loop BB10_4 Depth=1
                                        // =>  This Inner Loop Header: Depth=2
	sub	v0.16b, v0.16b, v4.16b
	sub	v1.16b, v1.16b, v4.16b
	subs	x10, x10, #32
	ldp	q2, q3, [x9, #-16]
	add	x9, x9, #32
	add	v0.16b, v0.16b, v2.16b
	add	v1.16b, v1.16b, v3.16b
	b.ne	.LBB10_9
// %bb.10:                              //   in Loop: Header=BB10_4 Depth=1
	add	v0.16b, v1.16b, v0.16b
	cmp	x22, x25
	addv	b0, v0.16b
	fmov	w9, s0
	b.eq	.LBB10_17
// %bb.11:                              //   in Loop: Header=BB10_4 Depth=1
	ldr	x12, [sp]                       // 8-byte Folded Reload
	mov	x11, x22
	mov	x10, x22
	cbz	x12, .LBB10_15
.LBB10_12:                              //   in Loop: Header=BB10_4 Depth=1
	movi	v0.2d, #0000000000000000
	mov	v0.b[0], w9
	ldr	x9, [sp, #24]                   // 8-byte Folded Reload
	add	x9, x9, x10
	add	x10, x21, x10
.LBB10_13:                              //   Parent Loop BB10_4 Depth=1
                                        // =>  This Inner Loop Header: Depth=2
	sub	v0.8b, v0.8b, v4.8b
	ldr	d1, [x10], #8
	adds	x9, x9, #8
	add	v0.8b, v0.8b, v1.8b
	b.ne	.LBB10_13
// %bb.14:                              //   in Loop: Header=BB10_4 Depth=1
	addv	b0, v0.8b
	cmp	x19, x25
	mov	x11, x19
	fmov	w9, s0
	b.eq	.LBB10_17
.LBB10_15:                              // %.preheader
                                        //   in Loop: Header=BB10_4 Depth=1
	sub	x10, x25, x11
	add	x11, x21, x11
.LBB10_16:                              //   Parent Loop BB10_4 Depth=1
                                        // =>  This Inner Loop Header: Depth=2
	ldrb	w12, [x11], #1
	sub	w9, w9, w23
	subs	x10, x10, #1
	add	w9, w9, w12
	b.ne	.LBB10_16
.LBB10_17:                              //   in Loop: Header=BB10_4 Depth=1
	ldr	d0, [x26, :lo12:init_value]
	fcvtzs	w10, d0
	sub	w10, w10, w23
	ubfiz	w10, w10, #6, #2
	cmp	w10, w9, uxtb
	b.eq	.LBB10_3
// %bb.18:                              //   in Loop: Header=BB10_4 Depth=1
	ldr	w1, [x27, :lo12:current_test]
	adrp	x0, .L.str.179
	add	x0, x0, :lo12:.L.str.179
	bl	printf
	ldur	q4, [x29, #-16]                 // 16-byte Folded Reload
	ldr	w8, [x28, :lo12:iterations]
	b	.LBB10_3
.LBB10_19:
	adrp	x21, init_value
	mov	w19, wzr
	adrp	x20, .L.str.179
	add	x20, x20, :lo12:.L.str.179
	ldr	d0, [x21, :lo12:init_value]
	b	.LBB10_21
.LBB10_20:                              //   in Loop: Header=BB10_21 Depth=1
	add	w19, w19, #1
	cmp	w19, w8
	b.ge	.LBB10_23
.LBB10_21:                              // =>This Inner Loop Header: Depth=1
	fcvtzs	w9, d0
	sub	w9, w9, w23
	tst	w9, #0x3
	b.eq	.LBB10_20
// %bb.22:                              //   in Loop: Header=BB10_21 Depth=1
	ldr	w1, [x27, :lo12:current_test]
	mov	x0, x20
	bl	printf
	ldr	d0, [x21, :lo12:init_value]
	ldr	w8, [x28, :lo12:iterations]
	b	.LBB10_20
.LBB10_23:
	bl	clock
	adrp	x22, results
	adrp	x21, allocated_results
	adrp	x9, start_time
	mov	x20, x0
	ldr	x0, [x22, :lo12:results]
	ldr	x19, [x9, :lo12:start_time]
	ldr	w9, [x21, :lo12:allocated_results]
	adrp	x8, end_time
	str	x20, [x8, :lo12:end_time]
	cbz	x0, .LBB10_25
// %bb.24:
	ldr	w8, [x27, :lo12:current_test]
	cmp	w8, w9
	b.lt	.LBB10_27
.LBB10_25:
	add	w8, w9, #10
	sbfiz	x1, x8, #4, #32
	str	w8, [x21, :lo12:allocated_results]
	bl	realloc
	str	x0, [x22, :lo12:results]
	cbz	x0, .LBB10_28
// %bb.26:
	ldr	w8, [x27, :lo12:current_test]
.LBB10_27:
	sub	x9, x20, x19
	ldr	x10, [sp, #8]                   // 8-byte Folded Reload
	scvtf	d0, x9
	mov	x9, #145685290680320            // =0x848000000000
	movk	x9, #16686, lsl #48
	fmov	d1, x9
	add	x9, x0, w8, sxtw #4
	add	w8, w8, #1
	str	x10, [x9, #8]
	fdiv	d0, d0, d1
	str	d0, [x9]
	str	w8, [x27, :lo12:current_test]
	.cfi_def_cfa wsp, 144
	ldp	x20, x19, [sp, #128]            // 16-byte Folded Reload
	ldp	x22, x21, [sp, #112]            // 16-byte Folded Reload
	ldp	x24, x23, [sp, #96]             // 16-byte Folded Reload
	ldp	x26, x25, [sp, #80]             // 16-byte Folded Reload
	ldp	x28, x27, [sp, #64]             // 16-byte Folded Reload
	ldp	x29, x30, [sp, #48]             // 16-byte Folded Reload
	add	sp, sp, #144
	.cfi_def_cfa_offset 0
	.cfi_restore w19
	.cfi_restore w20
	.cfi_restore w21
	.cfi_restore w22
	.cfi_restore w23
	.cfi_restore w24
	.cfi_restore w25
	.cfi_restore w26
	.cfi_restore w27
	.cfi_restore w28
	.cfi_restore w30
	.cfi_restore w29
	ret
.LBB10_28:
	.cfi_restore_state
	ldr	w1, [x21, :lo12:allocated_results]
	adrp	x0, .L.str
	add	x0, x0, :lo12:.L.str
	bl	printf
	mov	w0, #-1                         // =0xffffffff
	bl	exit
.Lfunc_end10:
	.size	_Z14test_variable4Ia28custom_sub_multiple_variableIaEEvPT_iS2_S2_S2_S2_PKc, .Lfunc_end10-_Z14test_variable4Ia28custom_sub_multiple_variableIaEEvPT_iS2_S2_S2_S2_PKc
	.cfi_endproc
                                        // -- End function
	.section	.text._Z14test_variable1Ia24custom_multiply_variableIaEEvPT_iS2_PKc,"axG",@progbits,_Z14test_variable1Ia24custom_multiply_variableIaEEvPT_iS2_PKc,comdat
	.weak	_Z14test_variable1Ia24custom_multiply_variableIaEEvPT_iS2_PKc // -- Begin function _Z14test_variable1Ia24custom_multiply_variableIaEEvPT_iS2_PKc
	.p2align	2
	.type	_Z14test_variable1Ia24custom_multiply_variableIaEEvPT_iS2_PKc,@function
_Z14test_variable1Ia24custom_multiply_variableIaEEvPT_iS2_PKc: // @_Z14test_variable1Ia24custom_multiply_variableIaEEvPT_iS2_PKc
	.cfi_startproc
// %bb.0:
	sub	sp, sp, #144
	.cfi_def_cfa_offset 144
	stp	x29, x30, [sp, #48]             // 16-byte Folded Spill
	stp	x28, x27, [sp, #64]             // 16-byte Folded Spill
	stp	x26, x25, [sp, #80]             // 16-byte Folded Spill
	stp	x24, x23, [sp, #96]             // 16-byte Folded Spill
	stp	x22, x21, [sp, #112]            // 16-byte Folded Spill
	stp	x20, x19, [sp, #128]            // 16-byte Folded Spill
	add	x29, sp, #48
	.cfi_def_cfa w29, 96
	.cfi_offset w19, -8
	.cfi_offset w20, -16
	.cfi_offset w21, -24
	.cfi_offset w22, -32
	.cfi_offset w23, -40
	.cfi_offset w24, -48
	.cfi_offset w25, -56
	.cfi_offset w26, -64
	.cfi_offset w27, -72
	.cfi_offset w28, -80
	.cfi_offset w30, -88
	.cfi_offset w29, -96
	.cfi_remember_state
	str	x3, [sp, #8]                    // 8-byte Folded Spill
	mov	w20, w2
	mov	w21, w1
	mov	x22, x0
	bl	clock
	adrp	x26, iterations
	adrp	x9, start_time
	ldr	w8, [x26, :lo12:iterations]
	str	x0, [x9, :lo12:start_time]
	cmp	w8, #1
	b.lt	.LBB11_23
// %bb.1:
	lsl	w27, w20, #6
	cmp	w21, #0
	b.le	.LBB11_19
// %bb.2:
	mov	w25, w21
	dup	v4.16b, w20
	mov	w28, wzr
	and	x23, x25, #0x7ffffff8
	and	x9, x25, #0x18
	add	x10, x22, #16
	and	x19, x25, #0x7fffffe0
	str	x9, [sp]                        // 8-byte Folded Spill
	neg	x9, x23
	adrp	x24, init_value
	stp	x10, x9, [sp, #16]              // 16-byte Folded Spill
	stur	q4, [x29, #-16]                 // 16-byte Folded Spill
	b	.LBB11_4
.LBB11_3:                               //   in Loop: Header=BB11_4 Depth=1
	add	w28, w28, #1
	cmp	w28, w8
	b.ge	.LBB11_23
.LBB11_4:                               // =>This Loop Header: Depth=1
                                        //     Child Loop BB11_9 Depth 2
                                        //     Child Loop BB11_13 Depth 2
                                        //     Child Loop BB11_16 Depth 2
	cmp	w21, #7
	b.hi	.LBB11_6
// %bb.5:                               //   in Loop: Header=BB11_4 Depth=1
	mov	x11, xzr
	mov	w9, wzr
	b	.LBB11_15
.LBB11_6:                               //   in Loop: Header=BB11_4 Depth=1
	cmp	w21, #32
	b.hs	.LBB11_8
// %bb.7:                               //   in Loop: Header=BB11_4 Depth=1
	mov	x10, xzr
	mov	w9, wzr
	b	.LBB11_12
.LBB11_8:                               // %.preheader2
                                        //   in Loop: Header=BB11_4 Depth=1
	movi	v0.2d, #0000000000000000
	movi	v1.2d, #0000000000000000
	ldr	x9, [sp, #16]                   // 8-byte Folded Reload
	mov	x10, x19
.LBB11_9:                               //   Parent Loop BB11_4 Depth=1
                                        // =>  This Inner Loop Header: Depth=2
	ldp	q2, q3, [x9, #-16]
	subs	x10, x10, #32
	add	x9, x9, #32
	mla	v0.16b, v2.16b, v4.16b
	mla	v1.16b, v3.16b, v4.16b
	b.ne	.LBB11_9
// %bb.10:                              //   in Loop: Header=BB11_4 Depth=1
	add	v0.16b, v1.16b, v0.16b
	cmp	x19, x25
	addv	b0, v0.16b
	fmov	w9, s0
	b.eq	.LBB11_17
// %bb.11:                              //   in Loop: Header=BB11_4 Depth=1
	ldr	x12, [sp]                       // 8-byte Folded Reload
	mov	x11, x19
	mov	x10, x19
	cbz	x12, .LBB11_15
.LBB11_12:                              //   in Loop: Header=BB11_4 Depth=1
	movi	v0.2d, #0000000000000000
	mov	v0.b[0], w9
	ldr	x9, [sp, #24]                   // 8-byte Folded Reload
	add	x9, x9, x10
	add	x10, x22, x10
.LBB11_13:                              //   Parent Loop BB11_4 Depth=1
                                        // =>  This Inner Loop Header: Depth=2
	ldr	d1, [x10], #8
	adds	x9, x9, #8
	mla	v0.8b, v1.8b, v4.8b
	b.ne	.LBB11_13
// %bb.14:                              //   in Loop: Header=BB11_4 Depth=1
	addv	b0, v0.8b
	cmp	x23, x25
	mov	x11, x23
	fmov	w9, s0
	b.eq	.LBB11_17
.LBB11_15:                              // %.preheader
                                        //   in Loop: Header=BB11_4 Depth=1
	sub	x10, x25, x11
	add	x11, x22, x11
.LBB11_16:                              //   Parent Loop BB11_4 Depth=1
                                        // =>  This Inner Loop Header: Depth=2
	ldrb	w12, [x11], #1
	subs	x10, x10, #1
	madd	w9, w12, w20, w9
	b.ne	.LBB11_16
.LBB11_17:                              //   in Loop: Header=BB11_4 Depth=1
	ldr	d0, [x24, :lo12:init_value]
	and	w9, w9, #0xff
	fcvtzs	w10, d0
	mul	w10, w27, w10
	cmp	w9, w10, uxtb
	b.eq	.LBB11_3
// %bb.18:                              //   in Loop: Header=BB11_4 Depth=1
	adrp	x8, current_test
	adrp	x0, .L.str.179
	add	x0, x0, :lo12:.L.str.179
	ldr	w1, [x8, :lo12:current_test]
	bl	printf
	ldur	q4, [x29, #-16]                 // 16-byte Folded Reload
	ldr	w8, [x26, :lo12:iterations]
	b	.LBB11_3
.LBB11_19:
	adrp	x21, init_value
	mov	w19, wzr
	adrp	x20, .L.str.179
	add	x20, x20, :lo12:.L.str.179
	ldr	d0, [x21, :lo12:init_value]
	b	.LBB11_21
.LBB11_20:                              //   in Loop: Header=BB11_21 Depth=1
	add	w19, w19, #1
	cmp	w19, w8
	b.ge	.LBB11_23
.LBB11_21:                              // =>This Inner Loop Header: Depth=1
	fcvtzs	w9, d0
	mul	w9, w27, w9
	tst	w9, #0xff
	b.eq	.LBB11_20
// %bb.22:                              //   in Loop: Header=BB11_21 Depth=1
	adrp	x8, current_test
	mov	x0, x20
	ldr	w1, [x8, :lo12:current_test]
	bl	printf
	ldr	d0, [x21, :lo12:init_value]
	ldr	w8, [x26, :lo12:iterations]
	b	.LBB11_20
.LBB11_23:
	bl	clock
	adrp	x22, results
	adrp	x21, allocated_results
	adrp	x9, start_time
	mov	x20, x0
	ldr	x0, [x22, :lo12:results]
	ldr	x19, [x9, :lo12:start_time]
	ldr	w9, [x21, :lo12:allocated_results]
	adrp	x8, end_time
	adrp	x23, current_test
	str	x20, [x8, :lo12:end_time]
	cbz	x0, .LBB11_25
// %bb.24:
	ldr	w8, [x23, :lo12:current_test]
	cmp	w8, w9
	b.lt	.LBB11_27
.LBB11_25:
	add	w8, w9, #10
	sbfiz	x1, x8, #4, #32
	str	w8, [x21, :lo12:allocated_results]
	bl	realloc
	str	x0, [x22, :lo12:results]
	cbz	x0, .LBB11_28
// %bb.26:
	ldr	w8, [x23, :lo12:current_test]
.LBB11_27:
	sub	x9, x20, x19
	ldr	x10, [sp, #8]                   // 8-byte Folded Reload
	scvtf	d0, x9
	mov	x9, #145685290680320            // =0x848000000000
	movk	x9, #16686, lsl #48
	fmov	d1, x9
	add	x9, x0, w8, sxtw #4
	add	w8, w8, #1
	str	x10, [x9, #8]
	fdiv	d0, d0, d1
	str	d0, [x9]
	str	w8, [x23, :lo12:current_test]
	.cfi_def_cfa wsp, 144
	ldp	x20, x19, [sp, #128]            // 16-byte Folded Reload
	ldp	x22, x21, [sp, #112]            // 16-byte Folded Reload
	ldp	x24, x23, [sp, #96]             // 16-byte Folded Reload
	ldp	x26, x25, [sp, #80]             // 16-byte Folded Reload
	ldp	x28, x27, [sp, #64]             // 16-byte Folded Reload
	ldp	x29, x30, [sp, #48]             // 16-byte Folded Reload
	add	sp, sp, #144
	.cfi_def_cfa_offset 0
	.cfi_restore w19
	.cfi_restore w20
	.cfi_restore w21
	.cfi_restore w22
	.cfi_restore w23
	.cfi_restore w24
	.cfi_restore w25
	.cfi_restore w26
	.cfi_restore w27
	.cfi_restore w28
	.cfi_restore w30
	.cfi_restore w29
	ret
.LBB11_28:
	.cfi_restore_state
	ldr	w1, [x21, :lo12:allocated_results]
	adrp	x0, .L.str
	add	x0, x0, :lo12:.L.str
	bl	printf
	mov	w0, #-1                         // =0xffffffff
	bl	exit
.Lfunc_end11:
	.size	_Z14test_variable1Ia24custom_multiply_variableIaEEvPT_iS2_PKc, .Lfunc_end11-_Z14test_variable1Ia24custom_multiply_variableIaEEvPT_iS2_PKc
	.cfi_endproc
                                        // -- End function
	.section	.text._Z14test_variable4Ia33custom_multiply_multiple_variableIaEEvPT_iS2_S2_S2_S2_PKc,"axG",@progbits,_Z14test_variable4Ia33custom_multiply_multiple_variableIaEEvPT_iS2_S2_S2_S2_PKc,comdat
	.weak	_Z14test_variable4Ia33custom_multiply_multiple_variableIaEEvPT_iS2_S2_S2_S2_PKc // -- Begin function _Z14test_variable4Ia33custom_multiply_multiple_variableIaEEvPT_iS2_S2_S2_S2_PKc
	.p2align	2
	.type	_Z14test_variable4Ia33custom_multiply_multiple_variableIaEEvPT_iS2_S2_S2_S2_PKc,@function
_Z14test_variable4Ia33custom_multiply_multiple_variableIaEEvPT_iS2_S2_S2_S2_PKc: // @_Z14test_variable4Ia33custom_multiply_multiple_variableIaEEvPT_iS2_S2_S2_S2_PKc
	.cfi_startproc
// %bb.0:
	sub	sp, sp, #144
	.cfi_def_cfa_offset 144
	stp	x29, x30, [sp, #48]             // 16-byte Folded Spill
	stp	x28, x27, [sp, #64]             // 16-byte Folded Spill
	stp	x26, x25, [sp, #80]             // 16-byte Folded Spill
	stp	x24, x23, [sp, #96]             // 16-byte Folded Spill
	stp	x22, x21, [sp, #112]            // 16-byte Folded Spill
	stp	x20, x19, [sp, #128]            // 16-byte Folded Spill
	add	x29, sp, #48
	.cfi_def_cfa w29, 96
	.cfi_offset w19, -8
	.cfi_offset w20, -16
	.cfi_offset w21, -24
	.cfi_offset w22, -32
	.cfi_offset w23, -40
	.cfi_offset w24, -48
	.cfi_offset w25, -56
	.cfi_offset w26, -64
	.cfi_offset w27, -72
	.cfi_offset w28, -80
	.cfi_offset w30, -88
	.cfi_offset w29, -96
	.cfi_remember_state
	str	x6, [sp, #8]                    // 8-byte Folded Spill
	mov	w24, w5
	mov	w25, w4
	mov	w23, w3
	mov	w22, w2
	mov	w20, w1
	mov	x21, x0
	bl	clock
	adrp	x28, iterations
	adrp	x9, start_time
	ldr	w8, [x28, :lo12:iterations]
	str	x0, [x9, :lo12:start_time]
	cmp	w8, #1
	b.lt	.LBB12_23
// %bb.1:
	mul	w9, w25, w24
	cmp	w20, #0
	mul	w10, w9, w22
	mul	w10, w10, w23
	lsl	w24, w10, #6
	b.le	.LBB12_19
// %bb.2:
	mul	w9, w9, w23
	mov	w27, w20
	mov	w25, wzr
	and	x19, x27, #0x7fffffe0
	add	x10, x21, #16
	adrp	x26, init_value
	mul	w23, w9, w22
	and	x22, x27, #0x7ffffff8
	and	x9, x27, #0x18
	str	x9, [sp]                        // 8-byte Folded Spill
	neg	x9, x22
	stp	x10, x9, [sp, #16]              // 16-byte Folded Spill
	dup	v4.16b, w23
	stur	q4, [x29, #-16]                 // 16-byte Folded Spill
	b	.LBB12_4
.LBB12_3:                               //   in Loop: Header=BB12_4 Depth=1
	add	w25, w25, #1
	cmp	w25, w8
	b.ge	.LBB12_23
.LBB12_4:                               // =>This Loop Header: Depth=1
                                        //     Child Loop BB12_9 Depth 2
                                        //     Child Loop BB12_13 Depth 2
                                        //     Child Loop BB12_16 Depth 2
	cmp	w20, #7
	b.hi	.LBB12_6
// %bb.5:                               //   in Loop: Header=BB12_4 Depth=1
	mov	x11, xzr
	mov	w9, wzr
	b	.LBB12_15
.LBB12_6:                               //   in Loop: Header=BB12_4 Depth=1
	cmp	w20, #32
	b.hs	.LBB12_8
// %bb.7:                               //   in Loop: Header=BB12_4 Depth=1
	mov	x10, xzr
	mov	w9, wzr
	b	.LBB12_12
.LBB12_8:                               // %.preheader2
                                        //   in Loop: Header=BB12_4 Depth=1
	movi	v0.2d, #0000000000000000
	movi	v1.2d, #0000000000000000
	ldr	x9, [sp, #16]                   // 8-byte Folded Reload
	mov	x10, x19
.LBB12_9:                               //   Parent Loop BB12_4 Depth=1
                                        // =>  This Inner Loop Header: Depth=2
	ldp	q2, q3, [x9, #-16]
	subs	x10, x10, #32
	add	x9, x9, #32
	mla	v0.16b, v4.16b, v2.16b
	mla	v1.16b, v4.16b, v3.16b
	b.ne	.LBB12_9
// %bb.10:                              //   in Loop: Header=BB12_4 Depth=1
	add	v0.16b, v1.16b, v0.16b
	cmp	x19, x27
	addv	b0, v0.16b
	fmov	w9, s0
	b.eq	.LBB12_17
// %bb.11:                              //   in Loop: Header=BB12_4 Depth=1
	ldr	x12, [sp]                       // 8-byte Folded Reload
	mov	x11, x19
	mov	x10, x19
	cbz	x12, .LBB12_15
.LBB12_12:                              //   in Loop: Header=BB12_4 Depth=1
	movi	v0.2d, #0000000000000000
	mov	v0.b[0], w9
	ldr	x9, [sp, #24]                   // 8-byte Folded Reload
	add	x9, x9, x10
	add	x10, x21, x10
.LBB12_13:                              //   Parent Loop BB12_4 Depth=1
                                        // =>  This Inner Loop Header: Depth=2
	ldr	d1, [x10], #8
	adds	x9, x9, #8
	mla	v0.8b, v4.8b, v1.8b
	b.ne	.LBB12_13
// %bb.14:                              //   in Loop: Header=BB12_4 Depth=1
	addv	b0, v0.8b
	cmp	x22, x27
	mov	x11, x22
	fmov	w9, s0
	b.eq	.LBB12_17
.LBB12_15:                              // %.preheader
                                        //   in Loop: Header=BB12_4 Depth=1
	sub	x10, x27, x11
	add	x11, x21, x11
.LBB12_16:                              //   Parent Loop BB12_4 Depth=1
                                        // =>  This Inner Loop Header: Depth=2
	ldrb	w12, [x11], #1
	subs	x10, x10, #1
	madd	w9, w23, w12, w9
	b.ne	.LBB12_16
.LBB12_17:                              //   in Loop: Header=BB12_4 Depth=1
	ldr	d0, [x26, :lo12:init_value]
	and	w9, w9, #0xff
	fcvtzs	w10, d0
	mul	w10, w24, w10
	cmp	w9, w10, uxtb
	b.eq	.LBB12_3
// %bb.18:                              //   in Loop: Header=BB12_4 Depth=1
	adrp	x8, current_test
	adrp	x0, .L.str.179
	add	x0, x0, :lo12:.L.str.179
	ldr	w1, [x8, :lo12:current_test]
	bl	printf
	ldur	q4, [x29, #-16]                 // 16-byte Folded Reload
	ldr	w8, [x28, :lo12:iterations]
	b	.LBB12_3
.LBB12_19:
	adrp	x21, init_value
	mov	w19, wzr
	adrp	x20, .L.str.179
	add	x20, x20, :lo12:.L.str.179
	ldr	d0, [x21, :lo12:init_value]
	b	.LBB12_21
.LBB12_20:                              //   in Loop: Header=BB12_21 Depth=1
	add	w19, w19, #1
	cmp	w19, w8
	b.ge	.LBB12_23
.LBB12_21:                              // =>This Inner Loop Header: Depth=1
	fcvtzs	w9, d0
	mul	w9, w24, w9
	tst	w9, #0xff
	b.eq	.LBB12_20
// %bb.22:                              //   in Loop: Header=BB12_21 Depth=1
	adrp	x8, current_test
	mov	x0, x20
	ldr	w1, [x8, :lo12:current_test]
	bl	printf
	ldr	d0, [x21, :lo12:init_value]
	ldr	w8, [x28, :lo12:iterations]
	b	.LBB12_20
.LBB12_23:
	bl	clock
	adrp	x22, results
	adrp	x21, allocated_results
	adrp	x9, start_time
	mov	x20, x0
	ldr	x0, [x22, :lo12:results]
	ldr	x19, [x9, :lo12:start_time]
	ldr	w9, [x21, :lo12:allocated_results]
	adrp	x8, end_time
	adrp	x23, current_test
	str	x20, [x8, :lo12:end_time]
	cbz	x0, .LBB12_25
// %bb.24:
	ldr	w8, [x23, :lo12:current_test]
	cmp	w8, w9
	b.lt	.LBB12_27
.LBB12_25:
	add	w8, w9, #10
	sbfiz	x1, x8, #4, #32
	str	w8, [x21, :lo12:allocated_results]
	bl	realloc
	str	x0, [x22, :lo12:results]
	cbz	x0, .LBB12_28
// %bb.26:
	ldr	w8, [x23, :lo12:current_test]
.LBB12_27:
	sub	x9, x20, x19
	ldr	x10, [sp, #8]                   // 8-byte Folded Reload
	scvtf	d0, x9
	mov	x9, #145685290680320            // =0x848000000000
	movk	x9, #16686, lsl #48
	fmov	d1, x9
	add	x9, x0, w8, sxtw #4
	add	w8, w8, #1
	str	x10, [x9, #8]
	fdiv	d0, d0, d1
	str	d0, [x9]
	str	w8, [x23, :lo12:current_test]
	.cfi_def_cfa wsp, 144
	ldp	x20, x19, [sp, #128]            // 16-byte Folded Reload
	ldp	x22, x21, [sp, #112]            // 16-byte Folded Reload
	ldp	x24, x23, [sp, #96]             // 16-byte Folded Reload
	ldp	x26, x25, [sp, #80]             // 16-byte Folded Reload
	ldp	x28, x27, [sp, #64]             // 16-byte Folded Reload
	ldp	x29, x30, [sp, #48]             // 16-byte Folded Reload
	add	sp, sp, #144
	.cfi_def_cfa_offset 0
	.cfi_restore w19
	.cfi_restore w20
	.cfi_restore w21
	.cfi_restore w22
	.cfi_restore w23
	.cfi_restore w24
	.cfi_restore w25
	.cfi_restore w26
	.cfi_restore w27
	.cfi_restore w28
	.cfi_restore w30
	.cfi_restore w29
	ret
.LBB12_28:
	.cfi_restore_state
	ldr	w1, [x21, :lo12:allocated_results]
	adrp	x0, .L.str
	add	x0, x0, :lo12:.L.str
	bl	printf
	mov	w0, #-1                         // =0xffffffff
	bl	exit
.Lfunc_end12:
	.size	_Z14test_variable4Ia33custom_multiply_multiple_variableIaEEvPT_iS2_S2_S2_S2_PKc, .Lfunc_end12-_Z14test_variable4Ia33custom_multiply_multiple_variableIaEEvPT_iS2_S2_S2_S2_PKc
	.cfi_endproc
                                        // -- End function
	.section	.text._Z14test_variable4Ia34custom_multiply_multiple_variable2IaEEvPT_iS2_S2_S2_S2_PKc,"axG",@progbits,_Z14test_variable4Ia34custom_multiply_multiple_variable2IaEEvPT_iS2_S2_S2_S2_PKc,comdat
	.weak	_Z14test_variable4Ia34custom_multiply_multiple_variable2IaEEvPT_iS2_S2_S2_S2_PKc // -- Begin function _Z14test_variable4Ia34custom_multiply_multiple_variable2IaEEvPT_iS2_S2_S2_S2_PKc
	.p2align	2
	.type	_Z14test_variable4Ia34custom_multiply_multiple_variable2IaEEvPT_iS2_S2_S2_S2_PKc,@function
_Z14test_variable4Ia34custom_multiply_multiple_variable2IaEEvPT_iS2_S2_S2_S2_PKc: // @_Z14test_variable4Ia34custom_multiply_multiple_variable2IaEEvPT_iS2_S2_S2_S2_PKc
	.cfi_startproc
// %bb.0:
	sub	sp, sp, #144
	.cfi_def_cfa_offset 144
	stp	x29, x30, [sp, #48]             // 16-byte Folded Spill
	stp	x28, x27, [sp, #64]             // 16-byte Folded Spill
	stp	x26, x25, [sp, #80]             // 16-byte Folded Spill
	stp	x24, x23, [sp, #96]             // 16-byte Folded Spill
	stp	x22, x21, [sp, #112]            // 16-byte Folded Spill
	stp	x20, x19, [sp, #128]            // 16-byte Folded Spill
	add	x29, sp, #48
	.cfi_def_cfa w29, 96
	.cfi_offset w19, -8
	.cfi_offset w20, -16
	.cfi_offset w21, -24
	.cfi_offset w22, -32
	.cfi_offset w23, -40
	.cfi_offset w24, -48
	.cfi_offset w25, -56
	.cfi_offset w26, -64
	.cfi_offset w27, -72
	.cfi_offset w28, -80
	.cfi_offset w30, -88
	.cfi_offset w29, -96
	.cfi_remember_state
	str	x6, [sp, #8]                    // 8-byte Folded Spill
	mov	w24, w5
	mov	w22, w4
	mov	w25, w3
	mov	w23, w2
	mov	w20, w1
	mov	x21, x0
	bl	clock
	adrp	x28, iterations
	adrp	x9, start_time
	ldr	w8, [x28, :lo12:iterations]
	str	x0, [x9, :lo12:start_time]
	cmp	w8, #1
	b.lt	.LBB13_23
// %bb.1:
	mul	w9, w25, w24
	cmp	w20, #0
	mul	w10, w9, w22
	mul	w24, w10, w23
	b.le	.LBB13_19
// %bb.2:
	mul	w9, w9, w23
	mov	w27, w20
	mov	w25, wzr
	and	x19, x27, #0x7fffffe0
	add	x10, x21, #16
	adrp	x26, init_value
	mul	w23, w9, w22
	and	x22, x27, #0x7ffffff8
	and	x9, x27, #0x18
	str	x9, [sp]                        // 8-byte Folded Spill
	neg	x9, x22
	stp	x10, x9, [sp, #16]              // 16-byte Folded Spill
	dup	v4.16b, w23
	stur	q4, [x29, #-16]                 // 16-byte Folded Spill
	b	.LBB13_4
.LBB13_3:                               //   in Loop: Header=BB13_4 Depth=1
	add	w25, w25, #1
	cmp	w25, w8
	b.ge	.LBB13_23
.LBB13_4:                               // =>This Loop Header: Depth=1
                                        //     Child Loop BB13_9 Depth 2
                                        //     Child Loop BB13_13 Depth 2
                                        //     Child Loop BB13_16 Depth 2
	cmp	w20, #7
	b.hi	.LBB13_6
// %bb.5:                               //   in Loop: Header=BB13_4 Depth=1
	mov	x11, xzr
	mov	w9, wzr
	b	.LBB13_15
.LBB13_6:                               //   in Loop: Header=BB13_4 Depth=1
	cmp	w20, #32
	b.hs	.LBB13_8
// %bb.7:                               //   in Loop: Header=BB13_4 Depth=1
	mov	x10, xzr
	mov	w9, wzr
	b	.LBB13_12
.LBB13_8:                               // %.preheader2
                                        //   in Loop: Header=BB13_4 Depth=1
	movi	v0.2d, #0000000000000000
	movi	v1.2d, #0000000000000000
	ldr	x9, [sp, #16]                   // 8-byte Folded Reload
	mov	x10, x19
.LBB13_9:                               //   Parent Loop BB13_4 Depth=1
                                        // =>  This Inner Loop Header: Depth=2
	add	v0.16b, v0.16b, v4.16b
	add	v1.16b, v1.16b, v4.16b
	subs	x10, x10, #32
	ldp	q2, q3, [x9, #-16]
	add	x9, x9, #32
	add	v0.16b, v0.16b, v2.16b
	add	v1.16b, v1.16b, v3.16b
	b.ne	.LBB13_9
// %bb.10:                              //   in Loop: Header=BB13_4 Depth=1
	add	v0.16b, v1.16b, v0.16b
	cmp	x19, x27
	addv	b0, v0.16b
	fmov	w9, s0
	b.eq	.LBB13_17
// %bb.11:                              //   in Loop: Header=BB13_4 Depth=1
	ldr	x12, [sp]                       // 8-byte Folded Reload
	mov	x11, x19
	mov	x10, x19
	cbz	x12, .LBB13_15
.LBB13_12:                              //   in Loop: Header=BB13_4 Depth=1
	movi	v0.2d, #0000000000000000
	mov	v0.b[0], w9
	ldr	x9, [sp, #24]                   // 8-byte Folded Reload
	add	x9, x9, x10
	add	x10, x21, x10
.LBB13_13:                              //   Parent Loop BB13_4 Depth=1
                                        // =>  This Inner Loop Header: Depth=2
	add	v0.8b, v0.8b, v4.8b
	ldr	d1, [x10], #8
	adds	x9, x9, #8
	add	v0.8b, v0.8b, v1.8b
	b.ne	.LBB13_13
// %bb.14:                              //   in Loop: Header=BB13_4 Depth=1
	addv	b0, v0.8b
	cmp	x22, x27
	mov	x11, x22
	fmov	w9, s0
	b.eq	.LBB13_17
.LBB13_15:                              // %.preheader
                                        //   in Loop: Header=BB13_4 Depth=1
	sub	x10, x27, x11
	add	x11, x21, x11
.LBB13_16:                              //   Parent Loop BB13_4 Depth=1
                                        // =>  This Inner Loop Header: Depth=2
	ldrb	w12, [x11], #1
	add	w9, w9, w23
	subs	x10, x10, #1
	add	w9, w9, w12
	b.ne	.LBB13_16
.LBB13_17:                              //   in Loop: Header=BB13_4 Depth=1
	ldr	d0, [x26, :lo12:init_value]
	fcvtzs	w10, d0
	add	w10, w24, w10
	ubfiz	w10, w10, #6, #2
	cmp	w10, w9, uxtb
	b.eq	.LBB13_3
// %bb.18:                              //   in Loop: Header=BB13_4 Depth=1
	adrp	x8, current_test
	adrp	x0, .L.str.179
	add	x0, x0, :lo12:.L.str.179
	ldr	w1, [x8, :lo12:current_test]
	bl	printf
	ldur	q4, [x29, #-16]                 // 16-byte Folded Reload
	ldr	w8, [x28, :lo12:iterations]
	b	.LBB13_3
.LBB13_19:
	adrp	x21, init_value
	mov	w19, wzr
	adrp	x20, .L.str.179
	add	x20, x20, :lo12:.L.str.179
	ldr	d0, [x21, :lo12:init_value]
	b	.LBB13_21
.LBB13_20:                              //   in Loop: Header=BB13_21 Depth=1
	add	w19, w19, #1
	cmp	w19, w8
	b.ge	.LBB13_23
.LBB13_21:                              // =>This Inner Loop Header: Depth=1
	fcvtzs	w9, d0
	add	w9, w24, w9
	tst	w9, #0x3
	b.eq	.LBB13_20
// %bb.22:                              //   in Loop: Header=BB13_21 Depth=1
	adrp	x8, current_test
	mov	x0, x20
	ldr	w1, [x8, :lo12:current_test]
	bl	printf
	ldr	d0, [x21, :lo12:init_value]
	ldr	w8, [x28, :lo12:iterations]
	b	.LBB13_20
.LBB13_23:
	bl	clock
	adrp	x22, results
	adrp	x21, allocated_results
	adrp	x9, start_time
	mov	x20, x0
	ldr	x0, [x22, :lo12:results]
	ldr	x19, [x9, :lo12:start_time]
	ldr	w9, [x21, :lo12:allocated_results]
	adrp	x8, end_time
	adrp	x23, current_test
	str	x20, [x8, :lo12:end_time]
	cbz	x0, .LBB13_25
// %bb.24:
	ldr	w8, [x23, :lo12:current_test]
	cmp	w8, w9
	b.lt	.LBB13_27
.LBB13_25:
	add	w8, w9, #10
	sbfiz	x1, x8, #4, #32
	str	w8, [x21, :lo12:allocated_results]
	bl	realloc
	str	x0, [x22, :lo12:results]
	cbz	x0, .LBB13_28
// %bb.26:
	ldr	w8, [x23, :lo12:current_test]
.LBB13_27:
	sub	x9, x20, x19
	ldr	x10, [sp, #8]                   // 8-byte Folded Reload
	scvtf	d0, x9
	mov	x9, #145685290680320            // =0x848000000000
	movk	x9, #16686, lsl #48
	fmov	d1, x9
	add	x9, x0, w8, sxtw #4
	add	w8, w8, #1
	str	x10, [x9, #8]
	fdiv	d0, d0, d1
	str	d0, [x9]
	str	w8, [x23, :lo12:current_test]
	.cfi_def_cfa wsp, 144
	ldp	x20, x19, [sp, #128]            // 16-byte Folded Reload
	ldp	x22, x21, [sp, #112]            // 16-byte Folded Reload
	ldp	x24, x23, [sp, #96]             // 16-byte Folded Reload
	ldp	x26, x25, [sp, #80]             // 16-byte Folded Reload
	ldp	x28, x27, [sp, #64]             // 16-byte Folded Reload
	ldp	x29, x30, [sp, #48]             // 16-byte Folded Reload
	add	sp, sp, #144
	.cfi_def_cfa_offset 0
	.cfi_restore w19
	.cfi_restore w20
	.cfi_restore w21
	.cfi_restore w22
	.cfi_restore w23
	.cfi_restore w24
	.cfi_restore w25
	.cfi_restore w26
	.cfi_restore w27
	.cfi_restore w28
	.cfi_restore w30
	.cfi_restore w29
	ret
.LBB13_28:
	.cfi_restore_state
	ldr	w1, [x21, :lo12:allocated_results]
	adrp	x0, .L.str
	add	x0, x0, :lo12:.L.str
	bl	printf
	mov	w0, #-1                         // =0xffffffff
	bl	exit
.Lfunc_end13:
	.size	_Z14test_variable4Ia34custom_multiply_multiple_variable2IaEEvPT_iS2_S2_S2_S2_PKc, .Lfunc_end13-_Z14test_variable4Ia34custom_multiply_multiple_variable2IaEEvPT_iS2_S2_S2_S2_PKc
	.cfi_endproc
                                        // -- End function
	.section	.text._Z14test_variable1Ia22custom_divide_variableIaEEvPT_iS2_PKc,"axG",@progbits,_Z14test_variable1Ia22custom_divide_variableIaEEvPT_iS2_PKc,comdat
	.weak	_Z14test_variable1Ia22custom_divide_variableIaEEvPT_iS2_PKc // -- Begin function _Z14test_variable1Ia22custom_divide_variableIaEEvPT_iS2_PKc
	.p2align	2
	.type	_Z14test_variable1Ia22custom_divide_variableIaEEvPT_iS2_PKc,@function
_Z14test_variable1Ia22custom_divide_variableIaEEvPT_iS2_PKc: // @_Z14test_variable1Ia22custom_divide_variableIaEEvPT_iS2_PKc
	.cfi_startproc
// %bb.0:
	sub	sp, sp, #112
	.cfi_def_cfa_offset 112
	stp	x29, x30, [sp, #16]             // 16-byte Folded Spill
	stp	x28, x27, [sp, #32]             // 16-byte Folded Spill
	stp	x26, x25, [sp, #48]             // 16-byte Folded Spill
	stp	x24, x23, [sp, #64]             // 16-byte Folded Spill
	stp	x22, x21, [sp, #80]             // 16-byte Folded Spill
	stp	x20, x19, [sp, #96]             // 16-byte Folded Spill
	add	x29, sp, #16
	.cfi_def_cfa w29, 96
	.cfi_offset w19, -8
	.cfi_offset w20, -16
	.cfi_offset w21, -24
	.cfi_offset w22, -32
	.cfi_offset w23, -40
	.cfi_offset w24, -48
	.cfi_offset w25, -56
	.cfi_offset w26, -64
	.cfi_offset w27, -72
	.cfi_offset w28, -80
	.cfi_offset w30, -88
	.cfi_offset w29, -96
	.cfi_remember_state
	str	x3, [sp, #8]                    // 8-byte Folded Spill
	mov	w22, w2
	mov	w20, w1
	mov	x21, x0
	bl	clock
	adrp	x25, iterations
	adrp	x9, start_time
	adrp	x23, current_test
	ldr	w8, [x25, :lo12:iterations]
	str	x0, [x9, :lo12:start_time]
	cmp	w8, #1
	b.lt	.LBB14_17
// %bb.1:
	sxtb	w26, w22
	cmp	w20, #0
	b.le	.LBB14_13
// %bb.2:
	mov	w28, w20
	mov	w27, wzr
	add	x24, x21, #1
	and	x19, x28, #0x7ffffffe
	adrp	x22, init_value
	b	.LBB14_4
.LBB14_3:                               //   in Loop: Header=BB14_4 Depth=1
	add	w27, w27, #1
	cmp	w27, w8
	b.ge	.LBB14_17
.LBB14_4:                               // =>This Loop Header: Depth=1
                                        //     Child Loop BB14_7 Depth 2
                                        //     Child Loop BB14_10 Depth 2
	cmp	w20, #1
	b.ne	.LBB14_6
// %bb.5:                               //   in Loop: Header=BB14_4 Depth=1
	mov	x11, xzr
	mov	w9, wzr
	b	.LBB14_9
.LBB14_6:                               // %.preheader2
                                        //   in Loop: Header=BB14_4 Depth=1
	mov	w9, wzr
	mov	w10, wzr
	mov	x11, x24
	mov	x12, x19
.LBB14_7:                               //   Parent Loop BB14_4 Depth=1
                                        // =>  This Inner Loop Header: Depth=2
	ldursb	w13, [x11, #-1]
	ldrsb	w14, [x11]
	subs	x12, x12, #2
	add	x11, x11, #2
	sdiv	w13, w13, w26
	sdiv	w14, w14, w26
	add	w9, w9, w13
	add	w10, w10, w14
	b.ne	.LBB14_7
// %bb.8:                               //   in Loop: Header=BB14_4 Depth=1
	cmp	x19, x28
	add	w9, w10, w9
	mov	x11, x19
	b.eq	.LBB14_11
.LBB14_9:                               // %.preheader
                                        //   in Loop: Header=BB14_4 Depth=1
	sub	x10, x28, x11
	add	x11, x21, x11
.LBB14_10:                              //   Parent Loop BB14_4 Depth=1
                                        // =>  This Inner Loop Header: Depth=2
	ldrsb	w12, [x11], #1
	subs	x10, x10, #1
	sdiv	w12, w12, w26
	add	w9, w9, w12
	b.ne	.LBB14_10
.LBB14_11:                              //   in Loop: Header=BB14_4 Depth=1
	ldr	d0, [x22, :lo12:init_value]
	fcvtzs	w10, d0
	sdiv	w10, w10, w26
	ubfiz	w10, w10, #6, #2
	cmp	w10, w9, uxtb
	b.eq	.LBB14_3
// %bb.12:                              //   in Loop: Header=BB14_4 Depth=1
	ldr	w1, [x23, :lo12:current_test]
	adrp	x0, .L.str.179
	add	x0, x0, :lo12:.L.str.179
	bl	printf
	ldr	w8, [x25, :lo12:iterations]
	b	.LBB14_3
.LBB14_13:
	adrp	x21, init_value
	mov	w19, wzr
	adrp	x20, .L.str.179
	add	x20, x20, :lo12:.L.str.179
	ldr	d0, [x21, :lo12:init_value]
	b	.LBB14_15
.LBB14_14:                              //   in Loop: Header=BB14_15 Depth=1
	add	w19, w19, #1
	cmp	w19, w8
	b.ge	.LBB14_17
.LBB14_15:                              // =>This Inner Loop Header: Depth=1
	fcvtzs	w9, d0
	sdiv	w9, w9, w26
	tst	w9, #0x3
	b.eq	.LBB14_14
// %bb.16:                              //   in Loop: Header=BB14_15 Depth=1
	ldr	w1, [x23, :lo12:current_test]
	mov	x0, x20
	bl	printf
	ldr	d0, [x21, :lo12:init_value]
	ldr	w8, [x25, :lo12:iterations]
	b	.LBB14_14
.LBB14_17:
	bl	clock
	adrp	x22, results
	adrp	x21, allocated_results
	adrp	x9, start_time
	mov	x20, x0
	ldr	x0, [x22, :lo12:results]
	ldr	x19, [x9, :lo12:start_time]
	ldr	w9, [x21, :lo12:allocated_results]
	adrp	x8, end_time
	str	x20, [x8, :lo12:end_time]
	cbz	x0, .LBB14_19
// %bb.18:
	ldr	w8, [x23, :lo12:current_test]
	cmp	w8, w9
	b.lt	.LBB14_21
.LBB14_19:
	add	w8, w9, #10
	sbfiz	x1, x8, #4, #32
	str	w8, [x21, :lo12:allocated_results]
	bl	realloc
	str	x0, [x22, :lo12:results]
	cbz	x0, .LBB14_22
// %bb.20:
	ldr	w8, [x23, :lo12:current_test]
.LBB14_21:
	sub	x9, x20, x19
	ldr	x10, [sp, #8]                   // 8-byte Folded Reload
	scvtf	d0, x9
	mov	x9, #145685290680320            // =0x848000000000
	movk	x9, #16686, lsl #48
	fmov	d1, x9
	add	x9, x0, w8, sxtw #4
	add	w8, w8, #1
	str	x10, [x9, #8]
	fdiv	d0, d0, d1
	str	d0, [x9]
	str	w8, [x23, :lo12:current_test]
	.cfi_def_cfa wsp, 112
	ldp	x20, x19, [sp, #96]             // 16-byte Folded Reload
	ldp	x22, x21, [sp, #80]             // 16-byte Folded Reload
	ldp	x24, x23, [sp, #64]             // 16-byte Folded Reload
	ldp	x26, x25, [sp, #48]             // 16-byte Folded Reload
	ldp	x28, x27, [sp, #32]             // 16-byte Folded Reload
	ldp	x29, x30, [sp, #16]             // 16-byte Folded Reload
	add	sp, sp, #112
	.cfi_def_cfa_offset 0
	.cfi_restore w19
	.cfi_restore w20
	.cfi_restore w21
	.cfi_restore w22
	.cfi_restore w23
	.cfi_restore w24
	.cfi_restore w25
	.cfi_restore w26
	.cfi_restore w27
	.cfi_restore w28
	.cfi_restore w30
	.cfi_restore w29
	ret
.LBB14_22:
	.cfi_restore_state
	ldr	w1, [x21, :lo12:allocated_results]
	adrp	x0, .L.str
	add	x0, x0, :lo12:.L.str
	bl	printf
	mov	w0, #-1                         // =0xffffffff
	bl	exit
.Lfunc_end14:
	.size	_Z14test_variable1Ia22custom_divide_variableIaEEvPT_iS2_PKc, .Lfunc_end14-_Z14test_variable1Ia22custom_divide_variableIaEEvPT_iS2_PKc
	.cfi_endproc
                                        // -- End function
	.section	.text._Z14test_variable4Ia31custom_divide_multiple_variableIaEEvPT_iS2_S2_S2_S2_PKc,"axG",@progbits,_Z14test_variable4Ia31custom_divide_multiple_variableIaEEvPT_iS2_S2_S2_S2_PKc,comdat
	.weak	_Z14test_variable4Ia31custom_divide_multiple_variableIaEEvPT_iS2_S2_S2_S2_PKc // -- Begin function _Z14test_variable4Ia31custom_divide_multiple_variableIaEEvPT_iS2_S2_S2_S2_PKc
	.p2align	2
	.type	_Z14test_variable4Ia31custom_divide_multiple_variableIaEEvPT_iS2_S2_S2_S2_PKc,@function
_Z14test_variable4Ia31custom_divide_multiple_variableIaEEvPT_iS2_S2_S2_S2_PKc: // @_Z14test_variable4Ia31custom_divide_multiple_variableIaEEvPT_iS2_S2_S2_S2_PKc
	.cfi_startproc
// %bb.0:
	sub	sp, sp, #112
	.cfi_def_cfa_offset 112
	stp	x29, x30, [sp, #16]             // 16-byte Folded Spill
	stp	x28, x27, [sp, #32]             // 16-byte Folded Spill
	stp	x26, x25, [sp, #48]             // 16-byte Folded Spill
	stp	x24, x23, [sp, #64]             // 16-byte Folded Spill
	stp	x22, x21, [sp, #80]             // 16-byte Folded Spill
	stp	x20, x19, [sp, #96]             // 16-byte Folded Spill
	add	x29, sp, #16
	.cfi_def_cfa w29, 96
	.cfi_offset w19, -8
	.cfi_offset w20, -16
	.cfi_offset w21, -24
	.cfi_offset w22, -32
	.cfi_offset w23, -40
	.cfi_offset w24, -48
	.cfi_offset w25, -56
	.cfi_offset w26, -64
	.cfi_offset w27, -72
	.cfi_offset w28, -80
	.cfi_offset w30, -88
	.cfi_offset w29, -96
	.cfi_remember_state
	str	x6, [sp]                        // 8-byte Folded Spill
	mov	w22, w5
	mov	w23, w4
	mov	w24, w3
	mov	w25, w2
	mov	w20, w1
	mov	x21, x0
	bl	clock
	adrp	x8, iterations
	adrp	x9, start_time
	ldr	w8, [x8, :lo12:iterations]
	str	x0, [x9, :lo12:start_time]
	cmp	w8, #1
	b.lt	.LBB15_17
// %bb.1:
	sxtb	w25, w25
	sxtb	w24, w24
	sxtb	w23, w23
	sxtb	w27, w22
	cmp	w20, #0
	b.le	.LBB15_13
// %bb.2:
	mov	w22, w20
	mov	w19, wzr
	add	x9, x21, #1
	and	x28, x22, #0x7ffffffe
	adrp	x26, init_value
	str	x9, [sp, #8]                    // 8-byte Folded Spill
	b	.LBB15_4
.LBB15_3:                               //   in Loop: Header=BB15_4 Depth=1
	add	w19, w19, #1
	cmp	w19, w8
	b.ge	.LBB15_17
.LBB15_4:                               // =>This Loop Header: Depth=1
                                        //     Child Loop BB15_7 Depth 2
                                        //     Child Loop BB15_10 Depth 2
	cmp	w20, #1
	b.ne	.LBB15_6
// %bb.5:                               //   in Loop: Header=BB15_4 Depth=1
	mov	x11, xzr
	mov	w9, wzr
	b	.LBB15_9
.LBB15_6:                               // %.preheader2
                                        //   in Loop: Header=BB15_4 Depth=1
	ldr	x11, [sp, #8]                   // 8-byte Folded Reload
	mov	w9, wzr
	mov	w10, wzr
	mov	x12, x28
.LBB15_7:                               //   Parent Loop BB15_4 Depth=1
                                        // =>  This Inner Loop Header: Depth=2
	ldursb	w13, [x11, #-1]
	ldrsb	w14, [x11]
	subs	x12, x12, #2
	add	x11, x11, #2
	sdiv	w13, w13, w25
	sdiv	w14, w14, w25
	sxth	w13, w13
	sxth	w14, w14
	sdiv	w13, w13, w24
	sdiv	w14, w14, w24
	sxth	w13, w13
	sxth	w14, w14
	sdiv	w13, w13, w23
	sdiv	w14, w14, w23
	sxth	w13, w13
	sxth	w14, w14
	sdiv	w13, w13, w27
	sdiv	w14, w14, w27
	add	w9, w9, w13
	add	w10, w10, w14
	b.ne	.LBB15_7
// %bb.8:                               //   in Loop: Header=BB15_4 Depth=1
	cmp	x28, x22
	add	w9, w10, w9
	mov	x11, x28
	b.eq	.LBB15_11
.LBB15_9:                               // %.preheader
                                        //   in Loop: Header=BB15_4 Depth=1
	sub	x10, x22, x11
	add	x11, x21, x11
.LBB15_10:                              //   Parent Loop BB15_4 Depth=1
                                        // =>  This Inner Loop Header: Depth=2
	ldrsb	w12, [x11], #1
	subs	x10, x10, #1
	sdiv	w12, w12, w25
	sxth	w12, w12
	sdiv	w12, w12, w24
	sxth	w12, w12
	sdiv	w12, w12, w23
	sxth	w12, w12
	sdiv	w12, w12, w27
	add	w9, w9, w12
	b.ne	.LBB15_10
.LBB15_11:                              //   in Loop: Header=BB15_4 Depth=1
	ldr	d0, [x26, :lo12:init_value]
	fcvtzs	w10, d0
	sdiv	w10, w10, w25
	sxth	w10, w10
	sdiv	w10, w10, w24
	sxth	w10, w10
	sdiv	w10, w10, w23
	sxth	w10, w10
	sdiv	w10, w10, w27
	ubfiz	w10, w10, #6, #2
	cmp	w10, w9, uxtb
	b.eq	.LBB15_3
// %bb.12:                              //   in Loop: Header=BB15_4 Depth=1
	adrp	x8, current_test
	adrp	x0, .L.str.179
	add	x0, x0, :lo12:.L.str.179
	ldr	w1, [x8, :lo12:current_test]
	bl	printf
	adrp	x8, iterations
	ldr	w8, [x8, :lo12:iterations]
	b	.LBB15_3
.LBB15_13:
	adrp	x21, init_value
	mov	w19, wzr
	adrp	x20, .L.str.179
	add	x20, x20, :lo12:.L.str.179
	ldr	d0, [x21, :lo12:init_value]
	b	.LBB15_15
.LBB15_14:                              //   in Loop: Header=BB15_15 Depth=1
	add	w19, w19, #1
	cmp	w19, w8
	b.ge	.LBB15_17
.LBB15_15:                              // =>This Inner Loop Header: Depth=1
	fcvtzs	w9, d0
	sdiv	w9, w9, w25
	sxth	w9, w9
	sdiv	w9, w9, w24
	sxth	w9, w9
	sdiv	w9, w9, w23
	sxth	w9, w9
	sdiv	w9, w9, w27
	tst	w9, #0x3
	b.eq	.LBB15_14
// %bb.16:                              //   in Loop: Header=BB15_15 Depth=1
	adrp	x8, current_test
	mov	x0, x20
	ldr	w1, [x8, :lo12:current_test]
	bl	printf
	adrp	x8, iterations
	ldr	d0, [x21, :lo12:init_value]
	ldr	w8, [x8, :lo12:iterations]
	b	.LBB15_14
.LBB15_17:
	bl	clock
	adrp	x22, results
	adrp	x21, allocated_results
	adrp	x9, start_time
	mov	x20, x0
	ldr	x0, [x22, :lo12:results]
	ldr	x19, [x9, :lo12:start_time]
	ldr	w9, [x21, :lo12:allocated_results]
	adrp	x8, end_time
	adrp	x23, current_test
	str	x20, [x8, :lo12:end_time]
	cbz	x0, .LBB15_19
// %bb.18:
	ldr	w8, [x23, :lo12:current_test]
	cmp	w8, w9
	b.lt	.LBB15_21
.LBB15_19:
	add	w8, w9, #10
	sbfiz	x1, x8, #4, #32
	str	w8, [x21, :lo12:allocated_results]
	bl	realloc
	str	x0, [x22, :lo12:results]
	cbz	x0, .LBB15_22
// %bb.20:
	ldr	w8, [x23, :lo12:current_test]
.LBB15_21:
	sub	x9, x20, x19
	ldr	x10, [sp]                       // 8-byte Folded Reload
	scvtf	d0, x9
	mov	x9, #145685290680320            // =0x848000000000
	movk	x9, #16686, lsl #48
	fmov	d1, x9
	add	x9, x0, w8, sxtw #4
	add	w8, w8, #1
	str	x10, [x9, #8]
	fdiv	d0, d0, d1
	str	d0, [x9]
	str	w8, [x23, :lo12:current_test]
	.cfi_def_cfa wsp, 112
	ldp	x20, x19, [sp, #96]             // 16-byte Folded Reload
	ldp	x22, x21, [sp, #80]             // 16-byte Folded Reload
	ldp	x24, x23, [sp, #64]             // 16-byte Folded Reload
	ldp	x26, x25, [sp, #48]             // 16-byte Folded Reload
	ldp	x28, x27, [sp, #32]             // 16-byte Folded Reload
	ldp	x29, x30, [sp, #16]             // 16-byte Folded Reload
	add	sp, sp, #112
	.cfi_def_cfa_offset 0
	.cfi_restore w19
	.cfi_restore w20
	.cfi_restore w21
	.cfi_restore w22
	.cfi_restore w23
	.cfi_restore w24
	.cfi_restore w25
	.cfi_restore w26
	.cfi_restore w27
	.cfi_restore w28
	.cfi_restore w30
	.cfi_restore w29
	ret
.LBB15_22:
	.cfi_restore_state
	ldr	w1, [x21, :lo12:allocated_results]
	adrp	x0, .L.str
	add	x0, x0, :lo12:.L.str
	bl	printf
	mov	w0, #-1                         // =0xffffffff
	bl	exit
.Lfunc_end15:
	.size	_Z14test_variable4Ia31custom_divide_multiple_variableIaEEvPT_iS2_S2_S2_S2_PKc, .Lfunc_end15-_Z14test_variable4Ia31custom_divide_multiple_variableIaEEvPT_iS2_S2_S2_S2_PKc
	.cfi_endproc
                                        // -- End function
	.section	.text._Z14test_variable4Ia32custom_divide_multiple_variable2IaEEvPT_iS2_S2_S2_S2_PKc,"axG",@progbits,_Z14test_variable4Ia32custom_divide_multiple_variable2IaEEvPT_iS2_S2_S2_S2_PKc,comdat
	.weak	_Z14test_variable4Ia32custom_divide_multiple_variable2IaEEvPT_iS2_S2_S2_S2_PKc // -- Begin function _Z14test_variable4Ia32custom_divide_multiple_variable2IaEEvPT_iS2_S2_S2_S2_PKc
	.p2align	2
	.type	_Z14test_variable4Ia32custom_divide_multiple_variable2IaEEvPT_iS2_S2_S2_S2_PKc,@function
_Z14test_variable4Ia32custom_divide_multiple_variable2IaEEvPT_iS2_S2_S2_S2_PKc: // @_Z14test_variable4Ia32custom_divide_multiple_variable2IaEEvPT_iS2_S2_S2_S2_PKc
	.cfi_startproc
// %bb.0:
	sub	sp, sp, #144
	.cfi_def_cfa_offset 144
	stp	x29, x30, [sp, #48]             // 16-byte Folded Spill
	stp	x28, x27, [sp, #64]             // 16-byte Folded Spill
	stp	x26, x25, [sp, #80]             // 16-byte Folded Spill
	stp	x24, x23, [sp, #96]             // 16-byte Folded Spill
	stp	x22, x21, [sp, #112]            // 16-byte Folded Spill
	stp	x20, x19, [sp, #128]            // 16-byte Folded Spill
	add	x29, sp, #48
	.cfi_def_cfa w29, 96
	.cfi_offset w19, -8
	.cfi_offset w20, -16
	.cfi_offset w21, -24
	.cfi_offset w22, -32
	.cfi_offset w23, -40
	.cfi_offset w24, -48
	.cfi_offset w25, -56
	.cfi_offset w26, -64
	.cfi_offset w27, -72
	.cfi_offset w28, -80
	.cfi_offset w30, -88
	.cfi_offset w29, -96
	.cfi_remember_state
	str	x6, [sp, #16]                   // 8-byte Folded Spill
	mov	w22, w5
	mov	w23, w4
	mov	w24, w3
	mov	w25, w2
	mov	w20, w1
	mov	x21, x0
	bl	clock
	adrp	x28, iterations
	adrp	x9, start_time
	ldr	w8, [x28, :lo12:iterations]
	str	x0, [x9, :lo12:start_time]
	cmp	w8, #1
	b.lt	.LBB16_23
// %bb.1:
	sxtb	w9, w25
	sxtb	w10, w24
	cmp	w20, #0
	sdiv	w9, w9, w10
	sxtb	w10, w23
	sxth	w9, w9
	sdiv	w9, w9, w10
	sxtb	w10, w22
	sxth	w9, w9
	sdiv	w23, w9, w10
	b.le	.LBB16_19
// %bb.2:
	mov	w25, w20
	dup	v4.16b, w23
	add	x9, x21, #16
	and	x19, x25, #0x7ffffff8
	mov	w24, wzr
	str	x9, [sp, #24]                   // 8-byte Folded Spill
	and	x22, x25, #0x7fffffe0
	and	x9, x25, #0x18
	neg	x27, x19
	adrp	x26, init_value
	str	x9, [sp, #8]                    // 8-byte Folded Spill
	stur	q4, [x29, #-16]                 // 16-byte Folded Spill
	b	.LBB16_4
.LBB16_3:                               //   in Loop: Header=BB16_4 Depth=1
	add	w24, w24, #1
	cmp	w24, w8
	b.ge	.LBB16_23
.LBB16_4:                               // =>This Loop Header: Depth=1
                                        //     Child Loop BB16_9 Depth 2
                                        //     Child Loop BB16_13 Depth 2
                                        //     Child Loop BB16_16 Depth 2
	cmp	w20, #7
	b.hi	.LBB16_6
// %bb.5:                               //   in Loop: Header=BB16_4 Depth=1
	mov	x11, xzr
	mov	w9, wzr
	b	.LBB16_15
.LBB16_6:                               //   in Loop: Header=BB16_4 Depth=1
	cmp	w20, #32
	b.hs	.LBB16_8
// %bb.7:                               //   in Loop: Header=BB16_4 Depth=1
	mov	x10, xzr
	mov	w9, wzr
	b	.LBB16_12
.LBB16_8:                               // %.preheader2
                                        //   in Loop: Header=BB16_4 Depth=1
	movi	v0.2d, #0000000000000000
	movi	v1.2d, #0000000000000000
	ldr	x9, [sp, #24]                   // 8-byte Folded Reload
	mov	x10, x22
.LBB16_9:                               //   Parent Loop BB16_4 Depth=1
                                        // =>  This Inner Loop Header: Depth=2
	ldp	q2, q3, [x9, #-16]
	subs	x10, x10, #32
	add	x9, x9, #32
	add	v0.16b, v2.16b, v0.16b
	add	v1.16b, v3.16b, v1.16b
	add	v0.16b, v0.16b, v4.16b
	add	v1.16b, v1.16b, v4.16b
	b.ne	.LBB16_9
// %bb.10:                              //   in Loop: Header=BB16_4 Depth=1
	add	v0.16b, v1.16b, v0.16b
	cmp	x22, x25
	addv	b0, v0.16b
	fmov	w9, s0
	b.eq	.LBB16_17
// %bb.11:                              //   in Loop: Header=BB16_4 Depth=1
	ldr	x12, [sp, #8]                   // 8-byte Folded Reload
	mov	x11, x22
	mov	x10, x22
	cbz	x12, .LBB16_15
.LBB16_12:                              //   in Loop: Header=BB16_4 Depth=1
	movi	v0.2d, #0000000000000000
	mov	v0.b[0], w9
	add	x9, x27, x10
	add	x10, x21, x10
.LBB16_13:                              //   Parent Loop BB16_4 Depth=1
                                        // =>  This Inner Loop Header: Depth=2
	add	v0.8b, v0.8b, v4.8b
	ldr	d1, [x10], #8
	adds	x9, x9, #8
	add	v0.8b, v1.8b, v0.8b
	b.ne	.LBB16_13
// %bb.14:                              //   in Loop: Header=BB16_4 Depth=1
	addv	b0, v0.8b
	cmp	x19, x25
	mov	x11, x19
	fmov	w9, s0
	b.eq	.LBB16_17
.LBB16_15:                              // %.preheader
                                        //   in Loop: Header=BB16_4 Depth=1
	sub	x10, x25, x11
	add	x11, x21, x11
.LBB16_16:                              //   Parent Loop BB16_4 Depth=1
                                        // =>  This Inner Loop Header: Depth=2
	ldrb	w12, [x11], #1
	add	w9, w9, w23
	subs	x10, x10, #1
	add	w9, w12, w9
	b.ne	.LBB16_16
.LBB16_17:                              //   in Loop: Header=BB16_4 Depth=1
	ldr	d0, [x26, :lo12:init_value]
	fcvtzs	w10, d0
	add	w10, w23, w10
	ubfiz	w10, w10, #6, #2
	cmp	w10, w9, uxtb
	b.eq	.LBB16_3
// %bb.18:                              //   in Loop: Header=BB16_4 Depth=1
	adrp	x8, current_test
	adrp	x0, .L.str.179
	add	x0, x0, :lo12:.L.str.179
	ldr	w1, [x8, :lo12:current_test]
	bl	printf
	ldur	q4, [x29, #-16]                 // 16-byte Folded Reload
	ldr	w8, [x28, :lo12:iterations]
	b	.LBB16_3
.LBB16_19:
	adrp	x21, init_value
	mov	w19, wzr
	adrp	x20, .L.str.179
	add	x20, x20, :lo12:.L.str.179
	ldr	d0, [x21, :lo12:init_value]
	b	.LBB16_21
.LBB16_20:                              //   in Loop: Header=BB16_21 Depth=1
	add	w19, w19, #1
	cmp	w19, w8
	b.ge	.LBB16_23
.LBB16_21:                              // =>This Inner Loop Header: Depth=1
	fcvtzs	w9, d0
	add	w9, w23, w9
	tst	w9, #0x3
	b.eq	.LBB16_20
// %bb.22:                              //   in Loop: Header=BB16_21 Depth=1
	adrp	x8, current_test
	mov	x0, x20
	ldr	w1, [x8, :lo12:current_test]
	bl	printf
	ldr	d0, [x21, :lo12:init_value]
	ldr	w8, [x28, :lo12:iterations]
	b	.LBB16_20
.LBB16_23:
	bl	clock
	adrp	x22, results
	adrp	x21, allocated_results
	adrp	x9, start_time
	mov	x20, x0
	ldr	x0, [x22, :lo12:results]
	ldr	x19, [x9, :lo12:start_time]
	ldr	w9, [x21, :lo12:allocated_results]
	adrp	x8, end_time
	adrp	x23, current_test
	str	x20, [x8, :lo12:end_time]
	cbz	x0, .LBB16_25
// %bb.24:
	ldr	w8, [x23, :lo12:current_test]
	cmp	w8, w9
	b.lt	.LBB16_27
.LBB16_25:
	add	w8, w9, #10
	sbfiz	x1, x8, #4, #32
	str	w8, [x21, :lo12:allocated_results]
	bl	realloc
	str	x0, [x22, :lo12:results]
	cbz	x0, .LBB16_28
// %bb.26:
	ldr	w8, [x23, :lo12:current_test]
.LBB16_27:
	sub	x9, x20, x19
	ldr	x10, [sp, #16]                  // 8-byte Folded Reload
	scvtf	d0, x9
	mov	x9, #145685290680320            // =0x848000000000
	movk	x9, #16686, lsl #48
	fmov	d1, x9
	add	x9, x0, w8, sxtw #4
	add	w8, w8, #1
	str	x10, [x9, #8]
	fdiv	d0, d0, d1
	str	d0, [x9]
	str	w8, [x23, :lo12:current_test]
	.cfi_def_cfa wsp, 144
	ldp	x20, x19, [sp, #128]            // 16-byte Folded Reload
	ldp	x22, x21, [sp, #112]            // 16-byte Folded Reload
	ldp	x24, x23, [sp, #96]             // 16-byte Folded Reload
	ldp	x26, x25, [sp, #80]             // 16-byte Folded Reload
	ldp	x28, x27, [sp, #64]             // 16-byte Folded Reload
	ldp	x29, x30, [sp, #48]             // 16-byte Folded Reload
	add	sp, sp, #144
	.cfi_def_cfa_offset 0
	.cfi_restore w19
	.cfi_restore w20
	.cfi_restore w21
	.cfi_restore w22
	.cfi_restore w23
	.cfi_restore w24
	.cfi_restore w25
	.cfi_restore w26
	.cfi_restore w27
	.cfi_restore w28
	.cfi_restore w30
	.cfi_restore w29
	ret
.LBB16_28:
	.cfi_restore_state
	ldr	w1, [x21, :lo12:allocated_results]
	adrp	x0, .L.str
	add	x0, x0, :lo12:.L.str
	bl	printf
	mov	w0, #-1                         // =0xffffffff
	bl	exit
.Lfunc_end16:
	.size	_Z14test_variable4Ia32custom_divide_multiple_variable2IaEEvPT_iS2_S2_S2_S2_PKc, .Lfunc_end16-_Z14test_variable4Ia32custom_divide_multiple_variable2IaEEvPT_iS2_S2_S2_S2_PKc
	.cfi_endproc
                                        // -- End function
	.section	.text._Z14test_variable4Ia30custom_mixed_multiple_variableIaEEvPT_iS2_S2_S2_S2_PKc,"axG",@progbits,_Z14test_variable4Ia30custom_mixed_multiple_variableIaEEvPT_iS2_S2_S2_S2_PKc,comdat
	.weak	_Z14test_variable4Ia30custom_mixed_multiple_variableIaEEvPT_iS2_S2_S2_S2_PKc // -- Begin function _Z14test_variable4Ia30custom_mixed_multiple_variableIaEEvPT_iS2_S2_S2_S2_PKc
	.p2align	2
	.type	_Z14test_variable4Ia30custom_mixed_multiple_variableIaEEvPT_iS2_S2_S2_S2_PKc,@function
_Z14test_variable4Ia30custom_mixed_multiple_variableIaEEvPT_iS2_S2_S2_S2_PKc: // @_Z14test_variable4Ia30custom_mixed_multiple_variableIaEEvPT_iS2_S2_S2_S2_PKc
	.cfi_startproc
// %bb.0:
	sub	sp, sp, #160
	.cfi_def_cfa_offset 160
	stp	x29, x30, [sp, #64]             // 16-byte Folded Spill
	stp	x28, x27, [sp, #80]             // 16-byte Folded Spill
	stp	x26, x25, [sp, #96]             // 16-byte Folded Spill
	stp	x24, x23, [sp, #112]            // 16-byte Folded Spill
	stp	x22, x21, [sp, #128]            // 16-byte Folded Spill
	stp	x20, x19, [sp, #144]            // 16-byte Folded Spill
	add	x29, sp, #64
	.cfi_def_cfa w29, 96
	.cfi_offset w19, -8
	.cfi_offset w20, -16
	.cfi_offset w21, -24
	.cfi_offset w22, -32
	.cfi_offset w23, -40
	.cfi_offset w24, -48
	.cfi_offset w25, -56
	.cfi_offset w26, -64
	.cfi_offset w27, -72
	.cfi_offset w28, -80
	.cfi_offset w30, -88
	.cfi_offset w29, -96
	.cfi_remember_state
	str	x6, [sp, #8]                    // 8-byte Folded Spill
	mov	w23, w5
	mov	w24, w4
	mov	w25, w3
	mov	w20, w2
	mov	w21, w1
	mov	x22, x0
	bl	clock
	adrp	x8, iterations
	adrp	x9, start_time
	ldr	w8, [x8, :lo12:iterations]
	str	x0, [x9, :lo12:start_time]
	cmp	w8, #1
	b.lt	.LBB17_23
// %bb.1:
	sxtb	w9, w25
	sxtb	w10, w24
	cmp	w21, #0
	mul	w9, w10, w9
	sxtb	w10, w23
	sdiv	w25, w9, w10
	sub	w24, w20, w25
	b.le	.LBB17_19
// %bb.2:
	mov	w19, w21
	dup	v4.16b, w20
	dup	v5.16b, w25
	and	x23, x19, #0x7ffffff8
	and	x9, x19, #0x18
	mov	w27, wzr
	add	x10, x22, #16
	and	x26, x19, #0x7fffffe0
	str	x9, [sp]                        // 8-byte Folded Spill
	neg	x9, x23
	adrp	x28, init_value
	stur	q4, [x29, #-16]                 // 16-byte Folded Spill
	stp	x10, x9, [sp, #16]              // 16-byte Folded Spill
	str	q5, [sp, #32]                   // 16-byte Folded Spill
	b	.LBB17_4
.LBB17_3:                               //   in Loop: Header=BB17_4 Depth=1
	add	w27, w27, #1
	cmp	w27, w8
	b.ge	.LBB17_23
.LBB17_4:                               // =>This Loop Header: Depth=1
                                        //     Child Loop BB17_9 Depth 2
                                        //     Child Loop BB17_13 Depth 2
                                        //     Child Loop BB17_16 Depth 2
	cmp	w21, #7
	b.hi	.LBB17_6
// %bb.5:                               //   in Loop: Header=BB17_4 Depth=1
	mov	x11, xzr
	mov	w9, wzr
	b	.LBB17_15
.LBB17_6:                               //   in Loop: Header=BB17_4 Depth=1
	cmp	w21, #32
	b.hs	.LBB17_8
// %bb.7:                               //   in Loop: Header=BB17_4 Depth=1
	mov	x10, xzr
	mov	w9, wzr
	b	.LBB17_12
.LBB17_8:                               // %.preheader2
                                        //   in Loop: Header=BB17_4 Depth=1
	movi	v0.2d, #0000000000000000
	movi	v1.2d, #0000000000000000
	ldr	x9, [sp, #16]                   // 8-byte Folded Reload
	mov	x10, x26
.LBB17_9:                               //   Parent Loop BB17_4 Depth=1
                                        // =>  This Inner Loop Header: Depth=2
	add	v0.16b, v0.16b, v4.16b
	add	v1.16b, v1.16b, v4.16b
	subs	x10, x10, #32
	ldp	q2, q3, [x9, #-16]
	add	x9, x9, #32
	add	v0.16b, v0.16b, v2.16b
	add	v1.16b, v1.16b, v3.16b
	sub	v0.16b, v0.16b, v5.16b
	sub	v1.16b, v1.16b, v5.16b
	b.ne	.LBB17_9
// %bb.10:                              //   in Loop: Header=BB17_4 Depth=1
	add	v0.16b, v1.16b, v0.16b
	cmp	x26, x19
	addv	b0, v0.16b
	fmov	w9, s0
	b.eq	.LBB17_17
// %bb.11:                              //   in Loop: Header=BB17_4 Depth=1
	ldr	x12, [sp]                       // 8-byte Folded Reload
	mov	x11, x26
	mov	x10, x26
	cbz	x12, .LBB17_15
.LBB17_12:                              //   in Loop: Header=BB17_4 Depth=1
	movi	v0.2d, #0000000000000000
	mov	v0.b[0], w9
	ldr	x9, [sp, #24]                   // 8-byte Folded Reload
	add	x9, x9, x10
	add	x10, x22, x10
.LBB17_13:                              //   Parent Loop BB17_4 Depth=1
                                        // =>  This Inner Loop Header: Depth=2
	add	v0.8b, v0.8b, v4.8b
	ldr	d1, [x10], #8
	adds	x9, x9, #8
	add	v0.8b, v0.8b, v1.8b
	sub	v0.8b, v0.8b, v5.8b
	b.ne	.LBB17_13
// %bb.14:                              //   in Loop: Header=BB17_4 Depth=1
	addv	b0, v0.8b
	cmp	x23, x19
	mov	x11, x23
	fmov	w9, s0
	b.eq	.LBB17_17
.LBB17_15:                              // %.preheader
                                        //   in Loop: Header=BB17_4 Depth=1
	sub	x10, x19, x11
	add	x11, x22, x11
.LBB17_16:                              //   Parent Loop BB17_4 Depth=1
                                        // =>  This Inner Loop Header: Depth=2
	ldrb	w12, [x11], #1
	add	w9, w9, w20
	subs	x10, x10, #1
	add	w9, w9, w12
	sub	w9, w9, w25
	b.ne	.LBB17_16
.LBB17_17:                              //   in Loop: Header=BB17_4 Depth=1
	ldr	d0, [x28, :lo12:init_value]
	fcvtzs	w10, d0
	add	w10, w24, w10
	ubfiz	w10, w10, #6, #2
	cmp	w10, w9, uxtb
	b.eq	.LBB17_3
// %bb.18:                              //   in Loop: Header=BB17_4 Depth=1
	adrp	x8, current_test
	adrp	x0, .L.str.179
	add	x0, x0, :lo12:.L.str.179
	ldr	w1, [x8, :lo12:current_test]
	bl	printf
	adrp	x8, iterations
	ldr	q5, [sp, #32]                   // 16-byte Folded Reload
	ldur	q4, [x29, #-16]                 // 16-byte Folded Reload
	ldr	w8, [x8, :lo12:iterations]
	b	.LBB17_3
.LBB17_19:
	adrp	x21, init_value
	mov	w19, wzr
	adrp	x20, .L.str.179
	add	x20, x20, :lo12:.L.str.179
	ldr	d0, [x21, :lo12:init_value]
	b	.LBB17_21
.LBB17_20:                              //   in Loop: Header=BB17_21 Depth=1
	add	w19, w19, #1
	cmp	w19, w8
	b.ge	.LBB17_23
.LBB17_21:                              // =>This Inner Loop Header: Depth=1
	fcvtzs	w9, d0
	add	w9, w24, w9
	tst	w9, #0x3
	b.eq	.LBB17_20
// %bb.22:                              //   in Loop: Header=BB17_21 Depth=1
	adrp	x8, current_test
	mov	x0, x20
	ldr	w1, [x8, :lo12:current_test]
	bl	printf
	adrp	x8, iterations
	ldr	d0, [x21, :lo12:init_value]
	ldr	w8, [x8, :lo12:iterations]
	b	.LBB17_20
.LBB17_23:
	bl	clock
	adrp	x22, results
	adrp	x21, allocated_results
	adrp	x9, start_time
	mov	x20, x0
	ldr	x0, [x22, :lo12:results]
	ldr	x19, [x9, :lo12:start_time]
	ldr	w9, [x21, :lo12:allocated_results]
	adrp	x8, end_time
	adrp	x23, current_test
	str	x20, [x8, :lo12:end_time]
	cbz	x0, .LBB17_25
// %bb.24:
	ldr	w8, [x23, :lo12:current_test]
	cmp	w8, w9
	b.lt	.LBB17_27
.LBB17_25:
	add	w8, w9, #10
	sbfiz	x1, x8, #4, #32
	str	w8, [x21, :lo12:allocated_results]
	bl	realloc
	str	x0, [x22, :lo12:results]
	cbz	x0, .LBB17_28
// %bb.26:
	ldr	w8, [x23, :lo12:current_test]
.LBB17_27:
	sub	x9, x20, x19
	ldr	x10, [sp, #8]                   // 8-byte Folded Reload
	scvtf	d0, x9
	mov	x9, #145685290680320            // =0x848000000000
	movk	x9, #16686, lsl #48
	fmov	d1, x9
	add	x9, x0, w8, sxtw #4
	add	w8, w8, #1
	str	x10, [x9, #8]
	fdiv	d0, d0, d1
	str	d0, [x9]
	str	w8, [x23, :lo12:current_test]
	.cfi_def_cfa wsp, 160
	ldp	x20, x19, [sp, #144]            // 16-byte Folded Reload
	ldp	x22, x21, [sp, #128]            // 16-byte Folded Reload
	ldp	x24, x23, [sp, #112]            // 16-byte Folded Reload
	ldp	x26, x25, [sp, #96]             // 16-byte Folded Reload
	ldp	x28, x27, [sp, #80]             // 16-byte Folded Reload
	ldp	x29, x30, [sp, #64]             // 16-byte Folded Reload
	add	sp, sp, #160
	.cfi_def_cfa_offset 0
	.cfi_restore w19
	.cfi_restore w20
	.cfi_restore w21
	.cfi_restore w22
	.cfi_restore w23
	.cfi_restore w24
	.cfi_restore w25
	.cfi_restore w26
	.cfi_restore w27
	.cfi_restore w28
	.cfi_restore w30
	.cfi_restore w29
	ret
.LBB17_28:
	.cfi_restore_state
	ldr	w1, [x21, :lo12:allocated_results]
	adrp	x0, .L.str
	add	x0, x0, :lo12:.L.str
	bl	printf
	mov	w0, #-1                         // =0xffffffff
	bl	exit
.Lfunc_end17:
	.size	_Z14test_variable4Ia30custom_mixed_multiple_variableIaEEvPT_iS2_S2_S2_S2_PKc, .Lfunc_end17-_Z14test_variable4Ia30custom_mixed_multiple_variableIaEEvPT_iS2_S2_S2_S2_PKc
	.cfi_endproc
                                        // -- End function
	.section	.text._Z14test_variable1Ia19custom_variable_andIaEEvPT_iS2_PKc,"axG",@progbits,_Z14test_variable1Ia19custom_variable_andIaEEvPT_iS2_PKc,comdat
	.weak	_Z14test_variable1Ia19custom_variable_andIaEEvPT_iS2_PKc // -- Begin function _Z14test_variable1Ia19custom_variable_andIaEEvPT_iS2_PKc
	.p2align	2
	.type	_Z14test_variable1Ia19custom_variable_andIaEEvPT_iS2_PKc,@function
_Z14test_variable1Ia19custom_variable_andIaEEvPT_iS2_PKc: // @_Z14test_variable1Ia19custom_variable_andIaEEvPT_iS2_PKc
	.cfi_startproc
// %bb.0:
	sub	sp, sp, #144
	.cfi_def_cfa_offset 144
	stp	x29, x30, [sp, #48]             // 16-byte Folded Spill
	stp	x28, x27, [sp, #64]             // 16-byte Folded Spill
	stp	x26, x25, [sp, #80]             // 16-byte Folded Spill
	stp	x24, x23, [sp, #96]             // 16-byte Folded Spill
	stp	x22, x21, [sp, #112]            // 16-byte Folded Spill
	stp	x20, x19, [sp, #128]            // 16-byte Folded Spill
	add	x29, sp, #48
	.cfi_def_cfa w29, 96
	.cfi_offset w19, -8
	.cfi_offset w20, -16
	.cfi_offset w21, -24
	.cfi_offset w22, -32
	.cfi_offset w23, -40
	.cfi_offset w24, -48
	.cfi_offset w25, -56
	.cfi_offset w26, -64
	.cfi_offset w27, -72
	.cfi_offset w28, -80
	.cfi_offset w30, -88
	.cfi_offset w29, -96
	.cfi_remember_state
	str	x3, [sp, #8]                    // 8-byte Folded Spill
	mov	w20, w2
	mov	w21, w1
	mov	x22, x0
	bl	clock
	adrp	x26, iterations
	adrp	x9, start_time
	adrp	x25, current_test
	ldr	w8, [x26, :lo12:iterations]
	str	x0, [x9, :lo12:start_time]
	cmp	w8, #1
	b.lt	.LBB18_23
// %bb.1:
	cmp	w21, #0
	b.le	.LBB18_19
// %bb.2:
	mov	w28, w21
	dup	v4.16b, w20
	mov	w27, wzr
	and	x19, x28, #0x7ffffff8
	and	x9, x28, #0x18
	add	x10, x22, #16
	and	x23, x28, #0x7fffffe0
	str	x9, [sp]                        // 8-byte Folded Spill
	neg	x9, x19
	adrp	x24, init_value
	stp	x10, x9, [sp, #16]              // 16-byte Folded Spill
	stur	q4, [x29, #-16]                 // 16-byte Folded Spill
	b	.LBB18_4
.LBB18_3:                               //   in Loop: Header=BB18_4 Depth=1
	add	w27, w27, #1
	cmp	w27, w8
	b.ge	.LBB18_23
.LBB18_4:                               // =>This Loop Header: Depth=1
                                        //     Child Loop BB18_9 Depth 2
                                        //     Child Loop BB18_13 Depth 2
                                        //     Child Loop BB18_16 Depth 2
	cmp	w21, #7
	b.hi	.LBB18_6
// %bb.5:                               //   in Loop: Header=BB18_4 Depth=1
	mov	x11, xzr
	mov	w9, wzr
	b	.LBB18_15
.LBB18_6:                               //   in Loop: Header=BB18_4 Depth=1
	cmp	w21, #32
	b.hs	.LBB18_8
// %bb.7:                               //   in Loop: Header=BB18_4 Depth=1
	mov	x10, xzr
	mov	w9, wzr
	b	.LBB18_12
.LBB18_8:                               // %.preheader2
                                        //   in Loop: Header=BB18_4 Depth=1
	movi	v0.2d, #0000000000000000
	movi	v1.2d, #0000000000000000
	ldr	x9, [sp, #16]                   // 8-byte Folded Reload
	mov	x10, x23
.LBB18_9:                               //   Parent Loop BB18_4 Depth=1
                                        // =>  This Inner Loop Header: Depth=2
	ldp	q2, q3, [x9, #-16]
	subs	x10, x10, #32
	add	x9, x9, #32
	and	v2.16b, v2.16b, v4.16b
	and	v3.16b, v3.16b, v4.16b
	add	v0.16b, v2.16b, v0.16b
	add	v1.16b, v3.16b, v1.16b
	b.ne	.LBB18_9
// %bb.10:                              //   in Loop: Header=BB18_4 Depth=1
	add	v0.16b, v1.16b, v0.16b
	cmp	x23, x28
	addv	b0, v0.16b
	fmov	w9, s0
	b.eq	.LBB18_17
// %bb.11:                              //   in Loop: Header=BB18_4 Depth=1
	ldr	x12, [sp]                       // 8-byte Folded Reload
	mov	x11, x23
	mov	x10, x23
	cbz	x12, .LBB18_15
.LBB18_12:                              //   in Loop: Header=BB18_4 Depth=1
	movi	v0.2d, #0000000000000000
	mov	v0.b[0], w9
	ldr	x9, [sp, #24]                   // 8-byte Folded Reload
	add	x9, x9, x10
	add	x10, x22, x10
.LBB18_13:                              //   Parent Loop BB18_4 Depth=1
                                        // =>  This Inner Loop Header: Depth=2
	ldr	d1, [x10], #8
	adds	x9, x9, #8
	and	v1.8b, v1.8b, v4.8b
	add	v0.8b, v1.8b, v0.8b
	b.ne	.LBB18_13
// %bb.14:                              //   in Loop: Header=BB18_4 Depth=1
	addv	b0, v0.8b
	cmp	x19, x28
	mov	x11, x19
	fmov	w9, s0
	b.eq	.LBB18_17
.LBB18_15:                              // %.preheader
                                        //   in Loop: Header=BB18_4 Depth=1
	sub	x10, x28, x11
	add	x11, x22, x11
.LBB18_16:                              //   Parent Loop BB18_4 Depth=1
                                        // =>  This Inner Loop Header: Depth=2
	ldrb	w12, [x11], #1
	subs	x10, x10, #1
	and	w12, w12, w20
	add	w9, w12, w9
	b.ne	.LBB18_16
.LBB18_17:                              //   in Loop: Header=BB18_4 Depth=1
	ldr	d0, [x24, :lo12:init_value]
	fcvtzs	w10, d0
	and	w10, w20, w10
	ubfiz	w10, w10, #6, #2
	cmp	w10, w9, uxtb
	b.eq	.LBB18_3
// %bb.18:                              //   in Loop: Header=BB18_4 Depth=1
	ldr	w1, [x25, :lo12:current_test]
	adrp	x0, .L.str.179
	add	x0, x0, :lo12:.L.str.179
	bl	printf
	ldur	q4, [x29, #-16]                 // 16-byte Folded Reload
	ldr	w8, [x26, :lo12:iterations]
	b	.LBB18_3
.LBB18_19:
	adrp	x21, init_value
	mov	w19, wzr
	and	w22, w20, #0x3
	ldr	d0, [x21, :lo12:init_value]
	adrp	x20, .L.str.179
	add	x20, x20, :lo12:.L.str.179
	b	.LBB18_21
.LBB18_20:                              //   in Loop: Header=BB18_21 Depth=1
	add	w19, w19, #1
	cmp	w19, w8
	b.ge	.LBB18_23
.LBB18_21:                              // =>This Inner Loop Header: Depth=1
	fcvtzs	w9, d0
	tst	w22, w9
	b.eq	.LBB18_20
// %bb.22:                              //   in Loop: Header=BB18_21 Depth=1
	ldr	w1, [x25, :lo12:current_test]
	mov	x0, x20
	bl	printf
	ldr	d0, [x21, :lo12:init_value]
	ldr	w8, [x26, :lo12:iterations]
	b	.LBB18_20
.LBB18_23:
	bl	clock
	adrp	x22, results
	adrp	x21, allocated_results
	adrp	x9, start_time
	mov	x20, x0
	ldr	x0, [x22, :lo12:results]
	ldr	x19, [x9, :lo12:start_time]
	ldr	w9, [x21, :lo12:allocated_results]
	adrp	x8, end_time
	str	x20, [x8, :lo12:end_time]
	cbz	x0, .LBB18_25
// %bb.24:
	ldr	w8, [x25, :lo12:current_test]
	cmp	w8, w9
	b.lt	.LBB18_27
.LBB18_25:
	add	w8, w9, #10
	sbfiz	x1, x8, #4, #32
	str	w8, [x21, :lo12:allocated_results]
	bl	realloc
	str	x0, [x22, :lo12:results]
	cbz	x0, .LBB18_28
// %bb.26:
	ldr	w8, [x25, :lo12:current_test]
.LBB18_27:
	sub	x9, x20, x19
	ldr	x10, [sp, #8]                   // 8-byte Folded Reload
	scvtf	d0, x9
	mov	x9, #145685290680320            // =0x848000000000
	movk	x9, #16686, lsl #48
	fmov	d1, x9
	add	x9, x0, w8, sxtw #4
	add	w8, w8, #1
	str	x10, [x9, #8]
	fdiv	d0, d0, d1
	str	d0, [x9]
	str	w8, [x25, :lo12:current_test]
	.cfi_def_cfa wsp, 144
	ldp	x20, x19, [sp, #128]            // 16-byte Folded Reload
	ldp	x22, x21, [sp, #112]            // 16-byte Folded Reload
	ldp	x24, x23, [sp, #96]             // 16-byte Folded Reload
	ldp	x26, x25, [sp, #80]             // 16-byte Folded Reload
	ldp	x28, x27, [sp, #64]             // 16-byte Folded Reload
	ldp	x29, x30, [sp, #48]             // 16-byte Folded Reload
	add	sp, sp, #144
	.cfi_def_cfa_offset 0
	.cfi_restore w19
	.cfi_restore w20
	.cfi_restore w21
	.cfi_restore w22
	.cfi_restore w23
	.cfi_restore w24
	.cfi_restore w25
	.cfi_restore w26
	.cfi_restore w27
	.cfi_restore w28
	.cfi_restore w30
	.cfi_restore w29
	ret
.LBB18_28:
	.cfi_restore_state
	ldr	w1, [x21, :lo12:allocated_results]
	adrp	x0, .L.str
	add	x0, x0, :lo12:.L.str
	bl	printf
	mov	w0, #-1                         // =0xffffffff
	bl	exit
.Lfunc_end18:
	.size	_Z14test_variable1Ia19custom_variable_andIaEEvPT_iS2_PKc, .Lfunc_end18-_Z14test_variable1Ia19custom_variable_andIaEEvPT_iS2_PKc
	.cfi_endproc
                                        // -- End function
	.section	.text._Z14test_variable4Ia28custom_multiple_variable_andIaEEvPT_iS2_S2_S2_S2_PKc,"axG",@progbits,_Z14test_variable4Ia28custom_multiple_variable_andIaEEvPT_iS2_S2_S2_S2_PKc,comdat
	.weak	_Z14test_variable4Ia28custom_multiple_variable_andIaEEvPT_iS2_S2_S2_S2_PKc // -- Begin function _Z14test_variable4Ia28custom_multiple_variable_andIaEEvPT_iS2_S2_S2_S2_PKc
	.p2align	2
	.type	_Z14test_variable4Ia28custom_multiple_variable_andIaEEvPT_iS2_S2_S2_S2_PKc,@function
_Z14test_variable4Ia28custom_multiple_variable_andIaEEvPT_iS2_S2_S2_S2_PKc: // @_Z14test_variable4Ia28custom_multiple_variable_andIaEEvPT_iS2_S2_S2_S2_PKc
	.cfi_startproc
// %bb.0:
	sub	sp, sp, #144
	.cfi_def_cfa_offset 144
	str	d8, [sp, #32]                   // 8-byte Folded Spill
	stp	x29, x30, [sp, #48]             // 16-byte Folded Spill
	stp	x28, x27, [sp, #64]             // 16-byte Folded Spill
	stp	x26, x25, [sp, #80]             // 16-byte Folded Spill
	stp	x24, x23, [sp, #96]             // 16-byte Folded Spill
	stp	x22, x21, [sp, #112]            // 16-byte Folded Spill
	stp	x20, x19, [sp, #128]            // 16-byte Folded Spill
	add	x29, sp, #48
	.cfi_def_cfa w29, 96
	.cfi_offset w19, -8
	.cfi_offset w20, -16
	.cfi_offset w21, -24
	.cfi_offset w22, -32
	.cfi_offset w23, -40
	.cfi_offset w24, -48
	.cfi_offset w25, -56
	.cfi_offset w26, -64
	.cfi_offset w27, -72
	.cfi_offset w28, -80
	.cfi_offset w30, -88
	.cfi_offset w29, -96
	.cfi_offset b8, -112
	.cfi_remember_state
	str	x6, [sp, #8]                    // 8-byte Folded Spill
	mov	w22, w5
	mov	w24, w4
	mov	w23, w3
	mov	w25, w2
	mov	w20, w1
	mov	x21, x0
	bl	clock
	adrp	x8, iterations
	adrp	x9, start_time
	ldr	w8, [x8, :lo12:iterations]
	str	x0, [x9, :lo12:start_time]
	cmp	w8, #1
	b.lt	.LBB19_23
// %bb.1:
	and	w9, w24, w22
	and	w10, w25, w23
	cmp	w20, #0
	and	w27, w10, w9
	mov	w19, wzr
	b.le	.LBB19_19
// %bb.2:
	fmov	s0, w24
	fmov	s1, w22
	and	w9, w22, w24
	fmov	s2, w25
	fmov	s3, w23
	and	w10, w23, w25
	and	w23, w10, w9
	mov	w24, w20
	adrp	x28, init_value
	and	v0.16b, v0.16b, v1.16b
	dup	v8.8b, w23
	and	x22, x24, #0x7ffffff8
	and	v1.16b, v2.16b, v3.16b
	and	x9, x24, #0x18
	and	x25, x24, #0x7fffffe0
	str	x9, [sp]                        // 8-byte Folded Spill
	add	x9, x21, #16
	neg	x26, x22
	stur	x9, [x29, #-8]                  // 8-byte Folded Spill
	and	v0.16b, v0.16b, v1.16b
	dup	v4.16b, v0.b[0]
	str	q4, [sp, #16]                   // 16-byte Folded Spill
	b	.LBB19_4
.LBB19_3:                               //   in Loop: Header=BB19_4 Depth=1
	add	w19, w19, #1
	cmp	w19, w8
	b.ge	.LBB19_23
.LBB19_4:                               // =>This Loop Header: Depth=1
                                        //     Child Loop BB19_9 Depth 2
                                        //     Child Loop BB19_13 Depth 2
                                        //     Child Loop BB19_16 Depth 2
	cmp	w20, #7
	b.hi	.LBB19_6
// %bb.5:                               //   in Loop: Header=BB19_4 Depth=1
	mov	x11, xzr
	mov	w9, wzr
	b	.LBB19_15
.LBB19_6:                               //   in Loop: Header=BB19_4 Depth=1
	cmp	w20, #32
	b.hs	.LBB19_8
// %bb.7:                               //   in Loop: Header=BB19_4 Depth=1
	mov	x10, xzr
	mov	w9, wzr
	b	.LBB19_12
.LBB19_8:                               // %.preheader2
                                        //   in Loop: Header=BB19_4 Depth=1
	movi	v0.2d, #0000000000000000
	movi	v1.2d, #0000000000000000
	ldur	x9, [x29, #-8]                  // 8-byte Folded Reload
	mov	x10, x25
.LBB19_9:                               //   Parent Loop BB19_4 Depth=1
                                        // =>  This Inner Loop Header: Depth=2
	ldp	q2, q3, [x9, #-16]
	subs	x10, x10, #32
	add	x9, x9, #32
	and	v2.16b, v2.16b, v4.16b
	and	v3.16b, v3.16b, v4.16b
	add	v0.16b, v2.16b, v0.16b
	add	v1.16b, v3.16b, v1.16b
	b.ne	.LBB19_9
// %bb.10:                              //   in Loop: Header=BB19_4 Depth=1
	add	v0.16b, v1.16b, v0.16b
	cmp	x25, x24
	addv	b0, v0.16b
	fmov	w9, s0
	b.eq	.LBB19_17
// %bb.11:                              //   in Loop: Header=BB19_4 Depth=1
	ldr	x12, [sp]                       // 8-byte Folded Reload
	mov	x11, x25
	mov	x10, x25
	cbz	x12, .LBB19_15
.LBB19_12:                              //   in Loop: Header=BB19_4 Depth=1
	movi	v0.2d, #0000000000000000
	mov	v0.b[0], w9
	add	x9, x26, x10
	add	x10, x21, x10
.LBB19_13:                              //   Parent Loop BB19_4 Depth=1
                                        // =>  This Inner Loop Header: Depth=2
	ldr	d1, [x10], #8
	adds	x9, x9, #8
	and	v1.8b, v8.8b, v1.8b
	add	v0.8b, v1.8b, v0.8b
	b.ne	.LBB19_13
// %bb.14:                              //   in Loop: Header=BB19_4 Depth=1
	addv	b0, v0.8b
	cmp	x22, x24
	mov	x11, x22
	fmov	w9, s0
	b.eq	.LBB19_17
.LBB19_15:                              // %.preheader
                                        //   in Loop: Header=BB19_4 Depth=1
	sub	x10, x24, x11
	add	x11, x21, x11
.LBB19_16:                              //   Parent Loop BB19_4 Depth=1
                                        // =>  This Inner Loop Header: Depth=2
	ldrb	w12, [x11], #1
	subs	x10, x10, #1
	and	w12, w12, w23
	add	w9, w12, w9
	b.ne	.LBB19_16
.LBB19_17:                              //   in Loop: Header=BB19_4 Depth=1
	ldr	d0, [x28, :lo12:init_value]
	fcvtzs	w10, d0
	and	w10, w27, w10
	ubfiz	w10, w10, #6, #2
	cmp	w10, w9, uxtb
	b.eq	.LBB19_3
// %bb.18:                              //   in Loop: Header=BB19_4 Depth=1
	adrp	x8, current_test
	adrp	x0, .L.str.179
	add	x0, x0, :lo12:.L.str.179
	ldr	w1, [x8, :lo12:current_test]
	bl	printf
	adrp	x8, iterations
	ldr	q4, [sp, #16]                   // 16-byte Folded Reload
	ldr	w8, [x8, :lo12:iterations]
	b	.LBB19_3
.LBB19_19:
	adrp	x21, init_value
	and	w22, w27, #0x3
	adrp	x20, .L.str.179
	add	x20, x20, :lo12:.L.str.179
	ldr	d0, [x21, :lo12:init_value]
	b	.LBB19_21
.LBB19_20:                              //   in Loop: Header=BB19_21 Depth=1
	add	w19, w19, #1
	cmp	w19, w8
	b.ge	.LBB19_23
.LBB19_21:                              // =>This Inner Loop Header: Depth=1
	fcvtzs	w9, d0
	tst	w22, w9
	b.eq	.LBB19_20
// %bb.22:                              //   in Loop: Header=BB19_21 Depth=1
	adrp	x8, current_test
	mov	x0, x20
	ldr	w1, [x8, :lo12:current_test]
	bl	printf
	adrp	x8, iterations
	ldr	d0, [x21, :lo12:init_value]
	ldr	w8, [x8, :lo12:iterations]
	b	.LBB19_20
.LBB19_23:
	bl	clock
	adrp	x22, results
	adrp	x21, allocated_results
	adrp	x9, start_time
	mov	x20, x0
	ldr	x0, [x22, :lo12:results]
	ldr	x19, [x9, :lo12:start_time]
	ldr	w9, [x21, :lo12:allocated_results]
	adrp	x8, end_time
	adrp	x23, current_test
	str	x20, [x8, :lo12:end_time]
	cbz	x0, .LBB19_25
// %bb.24:
	ldr	w8, [x23, :lo12:current_test]
	cmp	w8, w9
	b.lt	.LBB19_27
.LBB19_25:
	add	w8, w9, #10
	sbfiz	x1, x8, #4, #32
	str	w8, [x21, :lo12:allocated_results]
	bl	realloc
	str	x0, [x22, :lo12:results]
	cbz	x0, .LBB19_28
// %bb.26:
	ldr	w8, [x23, :lo12:current_test]
.LBB19_27:
	sub	x9, x20, x19
	ldr	x10, [sp, #8]                   // 8-byte Folded Reload
	scvtf	d0, x9
	mov	x9, #145685290680320            // =0x848000000000
	movk	x9, #16686, lsl #48
	fmov	d1, x9
	add	x9, x0, w8, sxtw #4
	add	w8, w8, #1
	str	x10, [x9, #8]
	fdiv	d0, d0, d1
	str	d0, [x9]
	str	w8, [x23, :lo12:current_test]
	.cfi_def_cfa wsp, 144
	ldp	x20, x19, [sp, #128]            // 16-byte Folded Reload
	ldr	d8, [sp, #32]                   // 8-byte Folded Reload
	ldp	x22, x21, [sp, #112]            // 16-byte Folded Reload
	ldp	x24, x23, [sp, #96]             // 16-byte Folded Reload
	ldp	x26, x25, [sp, #80]             // 16-byte Folded Reload
	ldp	x28, x27, [sp, #64]             // 16-byte Folded Reload
	ldp	x29, x30, [sp, #48]             // 16-byte Folded Reload
	add	sp, sp, #144
	.cfi_def_cfa_offset 0
	.cfi_restore w19
	.cfi_restore w20
	.cfi_restore w21
	.cfi_restore w22
	.cfi_restore w23
	.cfi_restore w24
	.cfi_restore w25
	.cfi_restore w26
	.cfi_restore w27
	.cfi_restore w28
	.cfi_restore w30
	.cfi_restore w29
	.cfi_restore b8
	ret
.LBB19_28:
	.cfi_restore_state
	ldr	w1, [x21, :lo12:allocated_results]
	adrp	x0, .L.str
	add	x0, x0, :lo12:.L.str
	bl	printf
	mov	w0, #-1                         // =0xffffffff
	bl	exit
.Lfunc_end19:
	.size	_Z14test_variable4Ia28custom_multiple_variable_andIaEEvPT_iS2_S2_S2_S2_PKc, .Lfunc_end19-_Z14test_variable4Ia28custom_multiple_variable_andIaEEvPT_iS2_S2_S2_S2_PKc
	.cfi_endproc
                                        // -- End function
	.section	.text._Z14test_variable1Ia18custom_variable_orIaEEvPT_iS2_PKc,"axG",@progbits,_Z14test_variable1Ia18custom_variable_orIaEEvPT_iS2_PKc,comdat
	.weak	_Z14test_variable1Ia18custom_variable_orIaEEvPT_iS2_PKc // -- Begin function _Z14test_variable1Ia18custom_variable_orIaEEvPT_iS2_PKc
	.p2align	2
	.type	_Z14test_variable1Ia18custom_variable_orIaEEvPT_iS2_PKc,@function
_Z14test_variable1Ia18custom_variable_orIaEEvPT_iS2_PKc: // @_Z14test_variable1Ia18custom_variable_orIaEEvPT_iS2_PKc
	.cfi_startproc
// %bb.0:
	sub	sp, sp, #144
	.cfi_def_cfa_offset 144
	stp	x29, x30, [sp, #48]             // 16-byte Folded Spill
	stp	x28, x27, [sp, #64]             // 16-byte Folded Spill
	stp	x26, x25, [sp, #80]             // 16-byte Folded Spill
	stp	x24, x23, [sp, #96]             // 16-byte Folded Spill
	stp	x22, x21, [sp, #112]            // 16-byte Folded Spill
	stp	x20, x19, [sp, #128]            // 16-byte Folded Spill
	add	x29, sp, #48
	.cfi_def_cfa w29, 96
	.cfi_offset w19, -8
	.cfi_offset w20, -16
	.cfi_offset w21, -24
	.cfi_offset w22, -32
	.cfi_offset w23, -40
	.cfi_offset w24, -48
	.cfi_offset w25, -56
	.cfi_offset w26, -64
	.cfi_offset w27, -72
	.cfi_offset w28, -80
	.cfi_offset w30, -88
	.cfi_offset w29, -96
	.cfi_remember_state
	str	x3, [sp, #8]                    // 8-byte Folded Spill
	mov	w20, w2
	mov	w21, w1
	mov	x22, x0
	bl	clock
	adrp	x26, iterations
	adrp	x9, start_time
	adrp	x25, current_test
	ldr	w8, [x26, :lo12:iterations]
	str	x0, [x9, :lo12:start_time]
	cmp	w8, #1
	b.lt	.LBB20_23
// %bb.1:
	cmp	w21, #0
	b.le	.LBB20_19
// %bb.2:
	mov	w28, w21
	dup	v4.16b, w20
	mov	w27, wzr
	and	x19, x28, #0x7ffffff8
	and	x9, x28, #0x18
	add	x10, x22, #16
	and	x23, x28, #0x7fffffe0
	str	x9, [sp]                        // 8-byte Folded Spill
	neg	x9, x19
	adrp	x24, init_value
	stp	x10, x9, [sp, #16]              // 16-byte Folded Spill
	stur	q4, [x29, #-16]                 // 16-byte Folded Spill
	b	.LBB20_4
.LBB20_3:                               //   in Loop: Header=BB20_4 Depth=1
	add	w27, w27, #1
	cmp	w27, w8
	b.ge	.LBB20_23
.LBB20_4:                               // =>This Loop Header: Depth=1
                                        //     Child Loop BB20_9 Depth 2
                                        //     Child Loop BB20_13 Depth 2
                                        //     Child Loop BB20_16 Depth 2
	cmp	w21, #7
	b.hi	.LBB20_6
// %bb.5:                               //   in Loop: Header=BB20_4 Depth=1
	mov	x11, xzr
	mov	w9, wzr
	b	.LBB20_15
.LBB20_6:                               //   in Loop: Header=BB20_4 Depth=1
	cmp	w21, #32
	b.hs	.LBB20_8
// %bb.7:                               //   in Loop: Header=BB20_4 Depth=1
	mov	x10, xzr
	mov	w9, wzr
	b	.LBB20_12
.LBB20_8:                               // %.preheader2
                                        //   in Loop: Header=BB20_4 Depth=1
	movi	v0.2d, #0000000000000000
	movi	v1.2d, #0000000000000000
	ldr	x9, [sp, #16]                   // 8-byte Folded Reload
	mov	x10, x23
.LBB20_9:                               //   Parent Loop BB20_4 Depth=1
                                        // =>  This Inner Loop Header: Depth=2
	ldp	q2, q3, [x9, #-16]
	subs	x10, x10, #32
	add	x9, x9, #32
	orr	v2.16b, v2.16b, v4.16b
	orr	v3.16b, v3.16b, v4.16b
	add	v0.16b, v2.16b, v0.16b
	add	v1.16b, v3.16b, v1.16b
	b.ne	.LBB20_9
// %bb.10:                              //   in Loop: Header=BB20_4 Depth=1
	add	v0.16b, v1.16b, v0.16b
	cmp	x23, x28
	addv	b0, v0.16b
	fmov	w9, s0
	b.eq	.LBB20_17
// %bb.11:                              //   in Loop: Header=BB20_4 Depth=1
	ldr	x12, [sp]                       // 8-byte Folded Reload
	mov	x11, x23
	mov	x10, x23
	cbz	x12, .LBB20_15
.LBB20_12:                              //   in Loop: Header=BB20_4 Depth=1
	movi	v0.2d, #0000000000000000
	mov	v0.b[0], w9
	ldr	x9, [sp, #24]                   // 8-byte Folded Reload
	add	x9, x9, x10
	add	x10, x22, x10
.LBB20_13:                              //   Parent Loop BB20_4 Depth=1
                                        // =>  This Inner Loop Header: Depth=2
	ldr	d1, [x10], #8
	adds	x9, x9, #8
	orr	v1.8b, v1.8b, v4.8b
	add	v0.8b, v1.8b, v0.8b
	b.ne	.LBB20_13
// %bb.14:                              //   in Loop: Header=BB20_4 Depth=1
	addv	b0, v0.8b
	cmp	x19, x28
	mov	x11, x19
	fmov	w9, s0
	b.eq	.LBB20_17
.LBB20_15:                              // %.preheader
                                        //   in Loop: Header=BB20_4 Depth=1
	sub	x10, x28, x11
	add	x11, x22, x11
.LBB20_16:                              //   Parent Loop BB20_4 Depth=1
                                        // =>  This Inner Loop Header: Depth=2
	ldrb	w12, [x11], #1
	subs	x10, x10, #1
	orr	w12, w12, w20
	add	w9, w12, w9
	b.ne	.LBB20_16
.LBB20_17:                              //   in Loop: Header=BB20_4 Depth=1
	ldr	d0, [x24, :lo12:init_value]
	fcvtzs	w10, d0
	orr	w10, w20, w10
	ubfiz	w10, w10, #6, #2
	cmp	w10, w9, uxtb
	b.eq	.LBB20_3
// %bb.18:                              //   in Loop: Header=BB20_4 Depth=1
	ldr	w1, [x25, :lo12:current_test]
	adrp	x0, .L.str.179
	add	x0, x0, :lo12:.L.str.179
	bl	printf
	ldur	q4, [x29, #-16]                 // 16-byte Folded Reload
	ldr	w8, [x26, :lo12:iterations]
	b	.LBB20_3
.LBB20_19:
	adrp	x22, init_value
	mov	w19, wzr
	adrp	x21, .L.str.179
	add	x21, x21, :lo12:.L.str.179
	ldr	d0, [x22, :lo12:init_value]
	b	.LBB20_21
.LBB20_20:                              //   in Loop: Header=BB20_21 Depth=1
	add	w19, w19, #1
	cmp	w19, w8
	b.ge	.LBB20_23
.LBB20_21:                              // =>This Inner Loop Header: Depth=1
	fcvtzs	w9, d0
	orr	w9, w20, w9
	tst	w9, #0x3
	b.eq	.LBB20_20
// %bb.22:                              //   in Loop: Header=BB20_21 Depth=1
	ldr	w1, [x25, :lo12:current_test]
	mov	x0, x21
	bl	printf
	ldr	d0, [x22, :lo12:init_value]
	ldr	w8, [x26, :lo12:iterations]
	b	.LBB20_20
.LBB20_23:
	bl	clock
	adrp	x22, results
	adrp	x21, allocated_results
	adrp	x9, start_time
	mov	x20, x0
	ldr	x0, [x22, :lo12:results]
	ldr	x19, [x9, :lo12:start_time]
	ldr	w9, [x21, :lo12:allocated_results]
	adrp	x8, end_time
	str	x20, [x8, :lo12:end_time]
	cbz	x0, .LBB20_25
// %bb.24:
	ldr	w8, [x25, :lo12:current_test]
	cmp	w8, w9
	b.lt	.LBB20_27
.LBB20_25:
	add	w8, w9, #10
	sbfiz	x1, x8, #4, #32
	str	w8, [x21, :lo12:allocated_results]
	bl	realloc
	str	x0, [x22, :lo12:results]
	cbz	x0, .LBB20_28
// %bb.26:
	ldr	w8, [x25, :lo12:current_test]
.LBB20_27:
	sub	x9, x20, x19
	ldr	x10, [sp, #8]                   // 8-byte Folded Reload
	scvtf	d0, x9
	mov	x9, #145685290680320            // =0x848000000000
	movk	x9, #16686, lsl #48
	fmov	d1, x9
	add	x9, x0, w8, sxtw #4
	add	w8, w8, #1
	str	x10, [x9, #8]
	fdiv	d0, d0, d1
	str	d0, [x9]
	str	w8, [x25, :lo12:current_test]
	.cfi_def_cfa wsp, 144
	ldp	x20, x19, [sp, #128]            // 16-byte Folded Reload
	ldp	x22, x21, [sp, #112]            // 16-byte Folded Reload
	ldp	x24, x23, [sp, #96]             // 16-byte Folded Reload
	ldp	x26, x25, [sp, #80]             // 16-byte Folded Reload
	ldp	x28, x27, [sp, #64]             // 16-byte Folded Reload
	ldp	x29, x30, [sp, #48]             // 16-byte Folded Reload
	add	sp, sp, #144
	.cfi_def_cfa_offset 0
	.cfi_restore w19
	.cfi_restore w20
	.cfi_restore w21
	.cfi_restore w22
	.cfi_restore w23
	.cfi_restore w24
	.cfi_restore w25
	.cfi_restore w26
	.cfi_restore w27
	.cfi_restore w28
	.cfi_restore w30
	.cfi_restore w29
	ret
.LBB20_28:
	.cfi_restore_state
	ldr	w1, [x21, :lo12:allocated_results]
	adrp	x0, .L.str
	add	x0, x0, :lo12:.L.str
	bl	printf
	mov	w0, #-1                         // =0xffffffff
	bl	exit
.Lfunc_end20:
	.size	_Z14test_variable1Ia18custom_variable_orIaEEvPT_iS2_PKc, .Lfunc_end20-_Z14test_variable1Ia18custom_variable_orIaEEvPT_iS2_PKc
	.cfi_endproc
                                        // -- End function
	.section	.text._Z14test_variable4Ia27custom_multiple_variable_orIaEEvPT_iS2_S2_S2_S2_PKc,"axG",@progbits,_Z14test_variable4Ia27custom_multiple_variable_orIaEEvPT_iS2_S2_S2_S2_PKc,comdat
	.weak	_Z14test_variable4Ia27custom_multiple_variable_orIaEEvPT_iS2_S2_S2_S2_PKc // -- Begin function _Z14test_variable4Ia27custom_multiple_variable_orIaEEvPT_iS2_S2_S2_S2_PKc
	.p2align	2
	.type	_Z14test_variable4Ia27custom_multiple_variable_orIaEEvPT_iS2_S2_S2_S2_PKc,@function
_Z14test_variable4Ia27custom_multiple_variable_orIaEEvPT_iS2_S2_S2_S2_PKc: // @_Z14test_variable4Ia27custom_multiple_variable_orIaEEvPT_iS2_S2_S2_S2_PKc
	.cfi_startproc
// %bb.0:
	sub	sp, sp, #144
	.cfi_def_cfa_offset 144
	str	d8, [sp, #32]                   // 8-byte Folded Spill
	stp	x29, x30, [sp, #48]             // 16-byte Folded Spill
	stp	x28, x27, [sp, #64]             // 16-byte Folded Spill
	stp	x26, x25, [sp, #80]             // 16-byte Folded Spill
	stp	x24, x23, [sp, #96]             // 16-byte Folded Spill
	stp	x22, x21, [sp, #112]            // 16-byte Folded Spill
	stp	x20, x19, [sp, #128]            // 16-byte Folded Spill
	add	x29, sp, #48
	.cfi_def_cfa w29, 96
	.cfi_offset w19, -8
	.cfi_offset w20, -16
	.cfi_offset w21, -24
	.cfi_offset w22, -32
	.cfi_offset w23, -40
	.cfi_offset w24, -48
	.cfi_offset w25, -56
	.cfi_offset w26, -64
	.cfi_offset w27, -72
	.cfi_offset w28, -80
	.cfi_offset w30, -88
	.cfi_offset w29, -96
	.cfi_offset b8, -112
	.cfi_remember_state
	str	x6, [sp, #8]                    // 8-byte Folded Spill
	mov	w22, w5
	mov	w24, w4
	mov	w23, w3
	mov	w25, w2
	mov	w20, w1
	mov	x21, x0
	bl	clock
	adrp	x8, iterations
	adrp	x9, start_time
	ldr	w8, [x8, :lo12:iterations]
	str	x0, [x9, :lo12:start_time]
	cmp	w8, #1
	b.lt	.LBB21_23
// %bb.1:
	orr	w9, w24, w22
	orr	w10, w25, w23
	cmp	w20, #0
	orr	w27, w10, w9
	mov	w19, wzr
	b.le	.LBB21_19
// %bb.2:
	fmov	s0, w24
	fmov	s1, w22
	orr	w9, w22, w24
	fmov	s2, w25
	fmov	s3, w23
	orr	w10, w23, w25
	orr	w23, w10, w9
	mov	w24, w20
	adrp	x28, init_value
	orr	v0.16b, v0.16b, v1.16b
	dup	v8.8b, w23
	and	x22, x24, #0x7ffffff8
	orr	v1.16b, v2.16b, v3.16b
	and	x9, x24, #0x18
	and	x25, x24, #0x7fffffe0
	str	x9, [sp]                        // 8-byte Folded Spill
	add	x9, x21, #16
	neg	x26, x22
	stur	x9, [x29, #-8]                  // 8-byte Folded Spill
	orr	v0.16b, v0.16b, v1.16b
	dup	v4.16b, v0.b[0]
	str	q4, [sp, #16]                   // 16-byte Folded Spill
	b	.LBB21_4
.LBB21_3:                               //   in Loop: Header=BB21_4 Depth=1
	add	w19, w19, #1
	cmp	w19, w8
	b.ge	.LBB21_23
.LBB21_4:                               // =>This Loop Header: Depth=1
                                        //     Child Loop BB21_9 Depth 2
                                        //     Child Loop BB21_13 Depth 2
                                        //     Child Loop BB21_16 Depth 2
	cmp	w20, #7
	b.hi	.LBB21_6
// %bb.5:                               //   in Loop: Header=BB21_4 Depth=1
	mov	x11, xzr
	mov	w9, wzr
	b	.LBB21_15
.LBB21_6:                               //   in Loop: Header=BB21_4 Depth=1
	cmp	w20, #32
	b.hs	.LBB21_8
// %bb.7:                               //   in Loop: Header=BB21_4 Depth=1
	mov	x10, xzr
	mov	w9, wzr
	b	.LBB21_12
.LBB21_8:                               // %.preheader2
                                        //   in Loop: Header=BB21_4 Depth=1
	movi	v0.2d, #0000000000000000
	movi	v1.2d, #0000000000000000
	ldur	x9, [x29, #-8]                  // 8-byte Folded Reload
	mov	x10, x25
.LBB21_9:                               //   Parent Loop BB21_4 Depth=1
                                        // =>  This Inner Loop Header: Depth=2
	ldp	q2, q3, [x9, #-16]
	subs	x10, x10, #32
	add	x9, x9, #32
	orr	v2.16b, v2.16b, v4.16b
	orr	v3.16b, v3.16b, v4.16b
	add	v0.16b, v2.16b, v0.16b
	add	v1.16b, v3.16b, v1.16b
	b.ne	.LBB21_9
// %bb.10:                              //   in Loop: Header=BB21_4 Depth=1
	add	v0.16b, v1.16b, v0.16b
	cmp	x25, x24
	addv	b0, v0.16b
	fmov	w9, s0
	b.eq	.LBB21_17
// %bb.11:                              //   in Loop: Header=BB21_4 Depth=1
	ldr	x12, [sp]                       // 8-byte Folded Reload
	mov	x11, x25
	mov	x10, x25
	cbz	x12, .LBB21_15
.LBB21_12:                              //   in Loop: Header=BB21_4 Depth=1
	movi	v0.2d, #0000000000000000
	mov	v0.b[0], w9
	add	x9, x26, x10
	add	x10, x21, x10
.LBB21_13:                              //   Parent Loop BB21_4 Depth=1
                                        // =>  This Inner Loop Header: Depth=2
	ldr	d1, [x10], #8
	adds	x9, x9, #8
	orr	v1.8b, v8.8b, v1.8b
	add	v0.8b, v1.8b, v0.8b
	b.ne	.LBB21_13
// %bb.14:                              //   in Loop: Header=BB21_4 Depth=1
	addv	b0, v0.8b
	cmp	x22, x24
	mov	x11, x22
	fmov	w9, s0
	b.eq	.LBB21_17
.LBB21_15:                              // %.preheader
                                        //   in Loop: Header=BB21_4 Depth=1
	sub	x10, x24, x11
	add	x11, x21, x11
.LBB21_16:                              //   Parent Loop BB21_4 Depth=1
                                        // =>  This Inner Loop Header: Depth=2
	ldrb	w12, [x11], #1
	subs	x10, x10, #1
	orr	w12, w12, w23
	add	w9, w12, w9
	b.ne	.LBB21_16
.LBB21_17:                              //   in Loop: Header=BB21_4 Depth=1
	ldr	d0, [x28, :lo12:init_value]
	fcvtzs	w10, d0
	orr	w10, w27, w10
	ubfiz	w10, w10, #6, #2
	cmp	w10, w9, uxtb
	b.eq	.LBB21_3
// %bb.18:                              //   in Loop: Header=BB21_4 Depth=1
	adrp	x8, current_test
	adrp	x0, .L.str.179
	add	x0, x0, :lo12:.L.str.179
	ldr	w1, [x8, :lo12:current_test]
	bl	printf
	adrp	x8, iterations
	ldr	q4, [sp, #16]                   // 16-byte Folded Reload
	ldr	w8, [x8, :lo12:iterations]
	b	.LBB21_3
.LBB21_19:
	adrp	x21, init_value
	adrp	x20, .L.str.179
	add	x20, x20, :lo12:.L.str.179
	ldr	d0, [x21, :lo12:init_value]
	b	.LBB21_21
.LBB21_20:                              //   in Loop: Header=BB21_21 Depth=1
	add	w19, w19, #1
	cmp	w19, w8
	b.ge	.LBB21_23
.LBB21_21:                              // =>This Inner Loop Header: Depth=1
	fcvtzs	w9, d0
	orr	w9, w27, w9
	tst	w9, #0x3
	b.eq	.LBB21_20
// %bb.22:                              //   in Loop: Header=BB21_21 Depth=1
	adrp	x8, current_test
	mov	x0, x20
	ldr	w1, [x8, :lo12:current_test]
	bl	printf
	adrp	x8, iterations
	ldr	d0, [x21, :lo12:init_value]
	ldr	w8, [x8, :lo12:iterations]
	b	.LBB21_20
.LBB21_23:
	bl	clock
	adrp	x22, results
	adrp	x21, allocated_results
	adrp	x9, start_time
	mov	x20, x0
	ldr	x0, [x22, :lo12:results]
	ldr	x19, [x9, :lo12:start_time]
	ldr	w9, [x21, :lo12:allocated_results]
	adrp	x8, end_time
	adrp	x23, current_test
	str	x20, [x8, :lo12:end_time]
	cbz	x0, .LBB21_25
// %bb.24:
	ldr	w8, [x23, :lo12:current_test]
	cmp	w8, w9
	b.lt	.LBB21_27
.LBB21_25:
	add	w8, w9, #10
	sbfiz	x1, x8, #4, #32
	str	w8, [x21, :lo12:allocated_results]
	bl	realloc
	str	x0, [x22, :lo12:results]
	cbz	x0, .LBB21_28
// %bb.26:
	ldr	w8, [x23, :lo12:current_test]
.LBB21_27:
	sub	x9, x20, x19
	ldr	x10, [sp, #8]                   // 8-byte Folded Reload
	scvtf	d0, x9
	mov	x9, #145685290680320            // =0x848000000000
	movk	x9, #16686, lsl #48
	fmov	d1, x9
	add	x9, x0, w8, sxtw #4
	add	w8, w8, #1
	str	x10, [x9, #8]
	fdiv	d0, d0, d1
	str	d0, [x9]
	str	w8, [x23, :lo12:current_test]
	.cfi_def_cfa wsp, 144
	ldp	x20, x19, [sp, #128]            // 16-byte Folded Reload
	ldr	d8, [sp, #32]                   // 8-byte Folded Reload
	ldp	x22, x21, [sp, #112]            // 16-byte Folded Reload
	ldp	x24, x23, [sp, #96]             // 16-byte Folded Reload
	ldp	x26, x25, [sp, #80]             // 16-byte Folded Reload
	ldp	x28, x27, [sp, #64]             // 16-byte Folded Reload
	ldp	x29, x30, [sp, #48]             // 16-byte Folded Reload
	add	sp, sp, #144
	.cfi_def_cfa_offset 0
	.cfi_restore w19
	.cfi_restore w20
	.cfi_restore w21
	.cfi_restore w22
	.cfi_restore w23
	.cfi_restore w24
	.cfi_restore w25
	.cfi_restore w26
	.cfi_restore w27
	.cfi_restore w28
	.cfi_restore w30
	.cfi_restore w29
	.cfi_restore b8
	ret
.LBB21_28:
	.cfi_restore_state
	ldr	w1, [x21, :lo12:allocated_results]
	adrp	x0, .L.str
	add	x0, x0, :lo12:.L.str
	bl	printf
	mov	w0, #-1                         // =0xffffffff
	bl	exit
.Lfunc_end21:
	.size	_Z14test_variable4Ia27custom_multiple_variable_orIaEEvPT_iS2_S2_S2_S2_PKc, .Lfunc_end21-_Z14test_variable4Ia27custom_multiple_variable_orIaEEvPT_iS2_S2_S2_S2_PKc
	.cfi_endproc
                                        // -- End function
	.section	.text._Z14test_variable1Ia19custom_variable_xorIaEEvPT_iS2_PKc,"axG",@progbits,_Z14test_variable1Ia19custom_variable_xorIaEEvPT_iS2_PKc,comdat
	.weak	_Z14test_variable1Ia19custom_variable_xorIaEEvPT_iS2_PKc // -- Begin function _Z14test_variable1Ia19custom_variable_xorIaEEvPT_iS2_PKc
	.p2align	2
	.type	_Z14test_variable1Ia19custom_variable_xorIaEEvPT_iS2_PKc,@function
_Z14test_variable1Ia19custom_variable_xorIaEEvPT_iS2_PKc: // @_Z14test_variable1Ia19custom_variable_xorIaEEvPT_iS2_PKc
	.cfi_startproc
// %bb.0:
	sub	sp, sp, #144
	.cfi_def_cfa_offset 144
	stp	x29, x30, [sp, #48]             // 16-byte Folded Spill
	stp	x28, x27, [sp, #64]             // 16-byte Folded Spill
	stp	x26, x25, [sp, #80]             // 16-byte Folded Spill
	stp	x24, x23, [sp, #96]             // 16-byte Folded Spill
	stp	x22, x21, [sp, #112]            // 16-byte Folded Spill
	stp	x20, x19, [sp, #128]            // 16-byte Folded Spill
	add	x29, sp, #48
	.cfi_def_cfa w29, 96
	.cfi_offset w19, -8
	.cfi_offset w20, -16
	.cfi_offset w21, -24
	.cfi_offset w22, -32
	.cfi_offset w23, -40
	.cfi_offset w24, -48
	.cfi_offset w25, -56
	.cfi_offset w26, -64
	.cfi_offset w27, -72
	.cfi_offset w28, -80
	.cfi_offset w30, -88
	.cfi_offset w29, -96
	.cfi_remember_state
	str	x3, [sp, #8]                    // 8-byte Folded Spill
	mov	w20, w2
	mov	w21, w1
	mov	x22, x0
	bl	clock
	adrp	x26, iterations
	adrp	x9, start_time
	adrp	x25, current_test
	ldr	w8, [x26, :lo12:iterations]
	str	x0, [x9, :lo12:start_time]
	cmp	w8, #1
	b.lt	.LBB22_23
// %bb.1:
	cmp	w21, #0
	b.le	.LBB22_19
// %bb.2:
	mov	w28, w21
	dup	v4.16b, w20
	mov	w27, wzr
	and	x19, x28, #0x7ffffff8
	and	x9, x28, #0x18
	add	x10, x22, #16
	and	x23, x28, #0x7fffffe0
	str	x9, [sp]                        // 8-byte Folded Spill
	neg	x9, x19
	adrp	x24, init_value
	stp	x10, x9, [sp, #16]              // 16-byte Folded Spill
	stur	q4, [x29, #-16]                 // 16-byte Folded Spill
	b	.LBB22_4
.LBB22_3:                               //   in Loop: Header=BB22_4 Depth=1
	add	w27, w27, #1
	cmp	w27, w8
	b.ge	.LBB22_23
.LBB22_4:                               // =>This Loop Header: Depth=1
                                        //     Child Loop BB22_9 Depth 2
                                        //     Child Loop BB22_13 Depth 2
                                        //     Child Loop BB22_16 Depth 2
	cmp	w21, #7
	b.hi	.LBB22_6
// %bb.5:                               //   in Loop: Header=BB22_4 Depth=1
	mov	x11, xzr
	mov	w9, wzr
	b	.LBB22_15
.LBB22_6:                               //   in Loop: Header=BB22_4 Depth=1
	cmp	w21, #32
	b.hs	.LBB22_8
// %bb.7:                               //   in Loop: Header=BB22_4 Depth=1
	mov	x10, xzr
	mov	w9, wzr
	b	.LBB22_12
.LBB22_8:                               // %.preheader2
                                        //   in Loop: Header=BB22_4 Depth=1
	movi	v0.2d, #0000000000000000
	movi	v1.2d, #0000000000000000
	ldr	x9, [sp, #16]                   // 8-byte Folded Reload
	mov	x10, x23
.LBB22_9:                               //   Parent Loop BB22_4 Depth=1
                                        // =>  This Inner Loop Header: Depth=2
	ldp	q2, q3, [x9, #-16]
	subs	x10, x10, #32
	add	x9, x9, #32
	eor	v2.16b, v2.16b, v4.16b
	eor	v3.16b, v3.16b, v4.16b
	add	v0.16b, v2.16b, v0.16b
	add	v1.16b, v3.16b, v1.16b
	b.ne	.LBB22_9
// %bb.10:                              //   in Loop: Header=BB22_4 Depth=1
	add	v0.16b, v1.16b, v0.16b
	cmp	x23, x28
	addv	b0, v0.16b
	fmov	w9, s0
	b.eq	.LBB22_17
// %bb.11:                              //   in Loop: Header=BB22_4 Depth=1
	ldr	x12, [sp]                       // 8-byte Folded Reload
	mov	x11, x23
	mov	x10, x23
	cbz	x12, .LBB22_15
.LBB22_12:                              //   in Loop: Header=BB22_4 Depth=1
	movi	v0.2d, #0000000000000000
	mov	v0.b[0], w9
	ldr	x9, [sp, #24]                   // 8-byte Folded Reload
	add	x9, x9, x10
	add	x10, x22, x10
.LBB22_13:                              //   Parent Loop BB22_4 Depth=1
                                        // =>  This Inner Loop Header: Depth=2
	ldr	d1, [x10], #8
	adds	x9, x9, #8
	eor	v1.8b, v1.8b, v4.8b
	add	v0.8b, v1.8b, v0.8b
	b.ne	.LBB22_13
// %bb.14:                              //   in Loop: Header=BB22_4 Depth=1
	addv	b0, v0.8b
	cmp	x19, x28
	mov	x11, x19
	fmov	w9, s0
	b.eq	.LBB22_17
.LBB22_15:                              // %.preheader
                                        //   in Loop: Header=BB22_4 Depth=1
	sub	x10, x28, x11
	add	x11, x22, x11
.LBB22_16:                              //   Parent Loop BB22_4 Depth=1
                                        // =>  This Inner Loop Header: Depth=2
	ldrb	w12, [x11], #1
	subs	x10, x10, #1
	eor	w12, w12, w20
	add	w9, w12, w9
	b.ne	.LBB22_16
.LBB22_17:                              //   in Loop: Header=BB22_4 Depth=1
	ldr	d0, [x24, :lo12:init_value]
	fcvtzs	w10, d0
	eor	w10, w20, w10
	ubfiz	w10, w10, #6, #2
	cmp	w10, w9, uxtb
	b.eq	.LBB22_3
// %bb.18:                              //   in Loop: Header=BB22_4 Depth=1
	ldr	w1, [x25, :lo12:current_test]
	adrp	x0, .L.str.179
	add	x0, x0, :lo12:.L.str.179
	bl	printf
	ldur	q4, [x29, #-16]                 // 16-byte Folded Reload
	ldr	w8, [x26, :lo12:iterations]
	b	.LBB22_3
.LBB22_19:
	adrp	x22, init_value
	mov	w19, wzr
	adrp	x21, .L.str.179
	add	x21, x21, :lo12:.L.str.179
	ldr	d0, [x22, :lo12:init_value]
	b	.LBB22_21
.LBB22_20:                              //   in Loop: Header=BB22_21 Depth=1
	add	w19, w19, #1
	cmp	w19, w8
	b.ge	.LBB22_23
.LBB22_21:                              // =>This Inner Loop Header: Depth=1
	fcvtzs	w9, d0
	eor	w9, w20, w9
	tst	w9, #0x3
	b.eq	.LBB22_20
// %bb.22:                              //   in Loop: Header=BB22_21 Depth=1
	ldr	w1, [x25, :lo12:current_test]
	mov	x0, x21
	bl	printf
	ldr	d0, [x22, :lo12:init_value]
	ldr	w8, [x26, :lo12:iterations]
	b	.LBB22_20
.LBB22_23:
	bl	clock
	adrp	x22, results
	adrp	x21, allocated_results
	adrp	x9, start_time
	mov	x20, x0
	ldr	x0, [x22, :lo12:results]
	ldr	x19, [x9, :lo12:start_time]
	ldr	w9, [x21, :lo12:allocated_results]
	adrp	x8, end_time
	str	x20, [x8, :lo12:end_time]
	cbz	x0, .LBB22_25
// %bb.24:
	ldr	w8, [x25, :lo12:current_test]
	cmp	w8, w9
	b.lt	.LBB22_27
.LBB22_25:
	add	w8, w9, #10
	sbfiz	x1, x8, #4, #32
	str	w8, [x21, :lo12:allocated_results]
	bl	realloc
	str	x0, [x22, :lo12:results]
	cbz	x0, .LBB22_28
// %bb.26:
	ldr	w8, [x25, :lo12:current_test]
.LBB22_27:
	sub	x9, x20, x19
	ldr	x10, [sp, #8]                   // 8-byte Folded Reload
	scvtf	d0, x9
	mov	x9, #145685290680320            // =0x848000000000
	movk	x9, #16686, lsl #48
	fmov	d1, x9
	add	x9, x0, w8, sxtw #4
	add	w8, w8, #1
	str	x10, [x9, #8]
	fdiv	d0, d0, d1
	str	d0, [x9]
	str	w8, [x25, :lo12:current_test]
	.cfi_def_cfa wsp, 144
	ldp	x20, x19, [sp, #128]            // 16-byte Folded Reload
	ldp	x22, x21, [sp, #112]            // 16-byte Folded Reload
	ldp	x24, x23, [sp, #96]             // 16-byte Folded Reload
	ldp	x26, x25, [sp, #80]             // 16-byte Folded Reload
	ldp	x28, x27, [sp, #64]             // 16-byte Folded Reload
	ldp	x29, x30, [sp, #48]             // 16-byte Folded Reload
	add	sp, sp, #144
	.cfi_def_cfa_offset 0
	.cfi_restore w19
	.cfi_restore w20
	.cfi_restore w21
	.cfi_restore w22
	.cfi_restore w23
	.cfi_restore w24
	.cfi_restore w25
	.cfi_restore w26
	.cfi_restore w27
	.cfi_restore w28
	.cfi_restore w30
	.cfi_restore w29
	ret
.LBB22_28:
	.cfi_restore_state
	ldr	w1, [x21, :lo12:allocated_results]
	adrp	x0, .L.str
	add	x0, x0, :lo12:.L.str
	bl	printf
	mov	w0, #-1                         // =0xffffffff
	bl	exit
.Lfunc_end22:
	.size	_Z14test_variable1Ia19custom_variable_xorIaEEvPT_iS2_PKc, .Lfunc_end22-_Z14test_variable1Ia19custom_variable_xorIaEEvPT_iS2_PKc
	.cfi_endproc
                                        // -- End function
	.section	.text._Z14test_variable4Ia28custom_multiple_variable_xorIaEEvPT_iS2_S2_S2_S2_PKc,"axG",@progbits,_Z14test_variable4Ia28custom_multiple_variable_xorIaEEvPT_iS2_S2_S2_S2_PKc,comdat
	.weak	_Z14test_variable4Ia28custom_multiple_variable_xorIaEEvPT_iS2_S2_S2_S2_PKc // -- Begin function _Z14test_variable4Ia28custom_multiple_variable_xorIaEEvPT_iS2_S2_S2_S2_PKc
	.p2align	2
	.type	_Z14test_variable4Ia28custom_multiple_variable_xorIaEEvPT_iS2_S2_S2_S2_PKc,@function
_Z14test_variable4Ia28custom_multiple_variable_xorIaEEvPT_iS2_S2_S2_S2_PKc: // @_Z14test_variable4Ia28custom_multiple_variable_xorIaEEvPT_iS2_S2_S2_S2_PKc
	.cfi_startproc
// %bb.0:
	sub	sp, sp, #144
	.cfi_def_cfa_offset 144
	str	d8, [sp, #32]                   // 8-byte Folded Spill
	stp	x29, x30, [sp, #48]             // 16-byte Folded Spill
	stp	x28, x27, [sp, #64]             // 16-byte Folded Spill
	stp	x26, x25, [sp, #80]             // 16-byte Folded Spill
	stp	x24, x23, [sp, #96]             // 16-byte Folded Spill
	stp	x22, x21, [sp, #112]            // 16-byte Folded Spill
	stp	x20, x19, [sp, #128]            // 16-byte Folded Spill
	add	x29, sp, #48
	.cfi_def_cfa w29, 96
	.cfi_offset w19, -8
	.cfi_offset w20, -16
	.cfi_offset w21, -24
	.cfi_offset w22, -32
	.cfi_offset w23, -40
	.cfi_offset w24, -48
	.cfi_offset w25, -56
	.cfi_offset w26, -64
	.cfi_offset w27, -72
	.cfi_offset w28, -80
	.cfi_offset w30, -88
	.cfi_offset w29, -96
	.cfi_offset b8, -112
	.cfi_remember_state
	str	x6, [sp, #8]                    // 8-byte Folded Spill
	mov	w22, w5
	mov	w24, w4
	mov	w23, w3
	mov	w25, w2
	mov	w20, w1
	mov	x21, x0
	bl	clock
	adrp	x8, iterations
	adrp	x9, start_time
	ldr	w8, [x8, :lo12:iterations]
	str	x0, [x9, :lo12:start_time]
	cmp	w8, #1
	b.lt	.LBB23_23
// %bb.1:
	eor	w9, w24, w22
	eor	w10, w25, w23
	cmp	w20, #0
	eor	w27, w10, w9
	mov	w19, wzr
	b.le	.LBB23_19
// %bb.2:
	fmov	s0, w24
	fmov	s1, w22
	eor	w9, w22, w24
	fmov	s2, w25
	fmov	s3, w23
	eor	w10, w23, w25
	eor	w23, w10, w9
	mov	w24, w20
	adrp	x28, init_value
	eor	v0.16b, v0.16b, v1.16b
	dup	v8.8b, w23
	and	x22, x24, #0x7ffffff8
	eor	v1.16b, v2.16b, v3.16b
	and	x9, x24, #0x18
	and	x25, x24, #0x7fffffe0
	str	x9, [sp]                        // 8-byte Folded Spill
	add	x9, x21, #16
	neg	x26, x22
	stur	x9, [x29, #-8]                  // 8-byte Folded Spill
	eor	v0.16b, v0.16b, v1.16b
	dup	v4.16b, v0.b[0]
	str	q4, [sp, #16]                   // 16-byte Folded Spill
	b	.LBB23_4
.LBB23_3:                               //   in Loop: Header=BB23_4 Depth=1
	add	w19, w19, #1
	cmp	w19, w8
	b.ge	.LBB23_23
.LBB23_4:                               // =>This Loop Header: Depth=1
                                        //     Child Loop BB23_9 Depth 2
                                        //     Child Loop BB23_13 Depth 2
                                        //     Child Loop BB23_16 Depth 2
	cmp	w20, #7
	b.hi	.LBB23_6
// %bb.5:                               //   in Loop: Header=BB23_4 Depth=1
	mov	x11, xzr
	mov	w9, wzr
	b	.LBB23_15
.LBB23_6:                               //   in Loop: Header=BB23_4 Depth=1
	cmp	w20, #32
	b.hs	.LBB23_8
// %bb.7:                               //   in Loop: Header=BB23_4 Depth=1
	mov	x10, xzr
	mov	w9, wzr
	b	.LBB23_12
.LBB23_8:                               // %.preheader2
                                        //   in Loop: Header=BB23_4 Depth=1
	movi	v0.2d, #0000000000000000
	movi	v1.2d, #0000000000000000
	ldur	x9, [x29, #-8]                  // 8-byte Folded Reload
	mov	x10, x25
.LBB23_9:                               //   Parent Loop BB23_4 Depth=1
                                        // =>  This Inner Loop Header: Depth=2
	ldp	q2, q3, [x9, #-16]
	subs	x10, x10, #32
	add	x9, x9, #32
	eor	v2.16b, v2.16b, v4.16b
	eor	v3.16b, v3.16b, v4.16b
	add	v0.16b, v2.16b, v0.16b
	add	v1.16b, v3.16b, v1.16b
	b.ne	.LBB23_9
// %bb.10:                              //   in Loop: Header=BB23_4 Depth=1
	add	v0.16b, v1.16b, v0.16b
	cmp	x25, x24
	addv	b0, v0.16b
	fmov	w9, s0
	b.eq	.LBB23_17
// %bb.11:                              //   in Loop: Header=BB23_4 Depth=1
	ldr	x12, [sp]                       // 8-byte Folded Reload
	mov	x11, x25
	mov	x10, x25
	cbz	x12, .LBB23_15
.LBB23_12:                              //   in Loop: Header=BB23_4 Depth=1
	movi	v0.2d, #0000000000000000
	mov	v0.b[0], w9
	add	x9, x26, x10
	add	x10, x21, x10
.LBB23_13:                              //   Parent Loop BB23_4 Depth=1
                                        // =>  This Inner Loop Header: Depth=2
	ldr	d1, [x10], #8
	adds	x9, x9, #8
	eor	v1.8b, v8.8b, v1.8b
	add	v0.8b, v1.8b, v0.8b
	b.ne	.LBB23_13
// %bb.14:                              //   in Loop: Header=BB23_4 Depth=1
	addv	b0, v0.8b
	cmp	x22, x24
	mov	x11, x22
	fmov	w9, s0
	b.eq	.LBB23_17
.LBB23_15:                              // %.preheader
                                        //   in Loop: Header=BB23_4 Depth=1
	sub	x10, x24, x11
	add	x11, x21, x11
.LBB23_16:                              //   Parent Loop BB23_4 Depth=1
                                        // =>  This Inner Loop Header: Depth=2
	ldrb	w12, [x11], #1
	subs	x10, x10, #1
	eor	w12, w12, w23
	add	w9, w12, w9
	b.ne	.LBB23_16
.LBB23_17:                              //   in Loop: Header=BB23_4 Depth=1
	ldr	d0, [x28, :lo12:init_value]
	fcvtzs	w10, d0
	eor	w10, w27, w10
	ubfiz	w10, w10, #6, #2
	cmp	w10, w9, uxtb
	b.eq	.LBB23_3
// %bb.18:                              //   in Loop: Header=BB23_4 Depth=1
	adrp	x8, current_test
	adrp	x0, .L.str.179
	add	x0, x0, :lo12:.L.str.179
	ldr	w1, [x8, :lo12:current_test]
	bl	printf
	adrp	x8, iterations
	ldr	q4, [sp, #16]                   // 16-byte Folded Reload
	ldr	w8, [x8, :lo12:iterations]
	b	.LBB23_3
.LBB23_19:
	adrp	x21, init_value
	adrp	x20, .L.str.179
	add	x20, x20, :lo12:.L.str.179
	ldr	d0, [x21, :lo12:init_value]
	b	.LBB23_21
.LBB23_20:                              //   in Loop: Header=BB23_21 Depth=1
	add	w19, w19, #1
	cmp	w19, w8
	b.ge	.LBB23_23
.LBB23_21:                              // =>This Inner Loop Header: Depth=1
	fcvtzs	w9, d0
	eor	w9, w27, w9
	tst	w9, #0x3
	b.eq	.LBB23_20
// %bb.22:                              //   in Loop: Header=BB23_21 Depth=1
	adrp	x8, current_test
	mov	x0, x20
	ldr	w1, [x8, :lo12:current_test]
	bl	printf
	adrp	x8, iterations
	ldr	d0, [x21, :lo12:init_value]
	ldr	w8, [x8, :lo12:iterations]
	b	.LBB23_20
.LBB23_23:
	bl	clock
	adrp	x22, results
	adrp	x21, allocated_results
	adrp	x9, start_time
	mov	x20, x0
	ldr	x0, [x22, :lo12:results]
	ldr	x19, [x9, :lo12:start_time]
	ldr	w9, [x21, :lo12:allocated_results]
	adrp	x8, end_time
	adrp	x23, current_test
	str	x20, [x8, :lo12:end_time]
	cbz	x0, .LBB23_25
// %bb.24:
	ldr	w8, [x23, :lo12:current_test]
	cmp	w8, w9
	b.lt	.LBB23_27
.LBB23_25:
	add	w8, w9, #10
	sbfiz	x1, x8, #4, #32
	str	w8, [x21, :lo12:allocated_results]
	bl	realloc
	str	x0, [x22, :lo12:results]
	cbz	x0, .LBB23_28
// %bb.26:
	ldr	w8, [x23, :lo12:current_test]
.LBB23_27:
	sub	x9, x20, x19
	ldr	x10, [sp, #8]                   // 8-byte Folded Reload
	scvtf	d0, x9
	mov	x9, #145685290680320            // =0x848000000000
	movk	x9, #16686, lsl #48
	fmov	d1, x9
	add	x9, x0, w8, sxtw #4
	add	w8, w8, #1
	str	x10, [x9, #8]
	fdiv	d0, d0, d1
	str	d0, [x9]
	str	w8, [x23, :lo12:current_test]
	.cfi_def_cfa wsp, 144
	ldp	x20, x19, [sp, #128]            // 16-byte Folded Reload
	ldr	d8, [sp, #32]                   // 8-byte Folded Reload
	ldp	x22, x21, [sp, #112]            // 16-byte Folded Reload
	ldp	x24, x23, [sp, #96]             // 16-byte Folded Reload
	ldp	x26, x25, [sp, #80]             // 16-byte Folded Reload
	ldp	x28, x27, [sp, #64]             // 16-byte Folded Reload
	ldp	x29, x30, [sp, #48]             // 16-byte Folded Reload
	add	sp, sp, #144
	.cfi_def_cfa_offset 0
	.cfi_restore w19
	.cfi_restore w20
	.cfi_restore w21
	.cfi_restore w22
	.cfi_restore w23
	.cfi_restore w24
	.cfi_restore w25
	.cfi_restore w26
	.cfi_restore w27
	.cfi_restore w28
	.cfi_restore w30
	.cfi_restore w29
	.cfi_restore b8
	ret
.LBB23_28:
	.cfi_restore_state
	ldr	w1, [x21, :lo12:allocated_results]
	adrp	x0, .L.str
	add	x0, x0, :lo12:.L.str
	bl	printf
	mov	w0, #-1                         // =0xffffffff
	bl	exit
.Lfunc_end23:
	.size	_Z14test_variable4Ia28custom_multiple_variable_xorIaEEvPT_iS2_S2_S2_S2_PKc, .Lfunc_end23-_Z14test_variable4Ia28custom_multiple_variable_xorIaEEvPT_iS2_S2_S2_S2_PKc
	.cfi_endproc
                                        // -- End function
	.section	.text._Z14test_variable1Ih19custom_add_variableIhEEvPT_iS2_PKc,"axG",@progbits,_Z14test_variable1Ih19custom_add_variableIhEEvPT_iS2_PKc,comdat
	.weak	_Z14test_variable1Ih19custom_add_variableIhEEvPT_iS2_PKc // -- Begin function _Z14test_variable1Ih19custom_add_variableIhEEvPT_iS2_PKc
	.p2align	2
	.type	_Z14test_variable1Ih19custom_add_variableIhEEvPT_iS2_PKc,@function
_Z14test_variable1Ih19custom_add_variableIhEEvPT_iS2_PKc: // @_Z14test_variable1Ih19custom_add_variableIhEEvPT_iS2_PKc
	.cfi_startproc
// %bb.0:
	sub	sp, sp, #144
	.cfi_def_cfa_offset 144
	stp	x29, x30, [sp, #48]             // 16-byte Folded Spill
	stp	x28, x27, [sp, #64]             // 16-byte Folded Spill
	stp	x26, x25, [sp, #80]             // 16-byte Folded Spill
	stp	x24, x23, [sp, #96]             // 16-byte Folded Spill
	stp	x22, x21, [sp, #112]            // 16-byte Folded Spill
	stp	x20, x19, [sp, #128]            // 16-byte Folded Spill
	add	x29, sp, #48
	.cfi_def_cfa w29, 96
	.cfi_offset w19, -8
	.cfi_offset w20, -16
	.cfi_offset w21, -24
	.cfi_offset w22, -32
	.cfi_offset w23, -40
	.cfi_offset w24, -48
	.cfi_offset w25, -56
	.cfi_offset w26, -64
	.cfi_offset w27, -72
	.cfi_offset w28, -80
	.cfi_offset w30, -88
	.cfi_offset w29, -96
	.cfi_remember_state
	str	x3, [sp, #8]                    // 8-byte Folded Spill
	mov	w20, w2
	mov	w21, w1
	mov	x22, x0
	bl	clock
	adrp	x26, iterations
	adrp	x9, start_time
	adrp	x25, current_test
	ldr	w8, [x26, :lo12:iterations]
	str	x0, [x9, :lo12:start_time]
	cmp	w8, #1
	b.lt	.LBB24_23
// %bb.1:
	cmp	w21, #0
	b.le	.LBB24_19
// %bb.2:
	mov	w28, w21
	dup	v4.16b, w20
	mov	w27, wzr
	and	x19, x28, #0x7ffffff8
	and	x9, x28, #0x18
	add	x10, x22, #16
	and	x23, x28, #0x7fffffe0
	str	x9, [sp]                        // 8-byte Folded Spill
	neg	x9, x19
	adrp	x24, init_value
	stp	x10, x9, [sp, #16]              // 16-byte Folded Spill
	stur	q4, [x29, #-16]                 // 16-byte Folded Spill
	b	.LBB24_4
.LBB24_3:                               //   in Loop: Header=BB24_4 Depth=1
	add	w27, w27, #1
	cmp	w27, w8
	b.ge	.LBB24_23
.LBB24_4:                               // =>This Loop Header: Depth=1
                                        //     Child Loop BB24_9 Depth 2
                                        //     Child Loop BB24_13 Depth 2
                                        //     Child Loop BB24_16 Depth 2
	cmp	w21, #7
	b.hi	.LBB24_6
// %bb.5:                               //   in Loop: Header=BB24_4 Depth=1
	mov	x11, xzr
	mov	w9, wzr
	b	.LBB24_15
.LBB24_6:                               //   in Loop: Header=BB24_4 Depth=1
	cmp	w21, #32
	b.hs	.LBB24_8
// %bb.7:                               //   in Loop: Header=BB24_4 Depth=1
	mov	x10, xzr
	mov	w9, wzr
	b	.LBB24_12
.LBB24_8:                               // %.preheader2
                                        //   in Loop: Header=BB24_4 Depth=1
	movi	v0.2d, #0000000000000000
	movi	v1.2d, #0000000000000000
	ldr	x9, [sp, #16]                   // 8-byte Folded Reload
	mov	x10, x23
.LBB24_9:                               //   Parent Loop BB24_4 Depth=1
                                        // =>  This Inner Loop Header: Depth=2
	add	v0.16b, v0.16b, v4.16b
	add	v1.16b, v1.16b, v4.16b
	subs	x10, x10, #32
	ldp	q2, q3, [x9, #-16]
	add	x9, x9, #32
	add	v0.16b, v0.16b, v2.16b
	add	v1.16b, v1.16b, v3.16b
	b.ne	.LBB24_9
// %bb.10:                              //   in Loop: Header=BB24_4 Depth=1
	add	v0.16b, v1.16b, v0.16b
	cmp	x23, x28
	addv	b0, v0.16b
	fmov	w9, s0
	b.eq	.LBB24_17
// %bb.11:                              //   in Loop: Header=BB24_4 Depth=1
	ldr	x12, [sp]                       // 8-byte Folded Reload
	mov	x11, x23
	mov	x10, x23
	cbz	x12, .LBB24_15
.LBB24_12:                              //   in Loop: Header=BB24_4 Depth=1
	movi	v0.2d, #0000000000000000
	mov	v0.b[0], w9
	ldr	x9, [sp, #24]                   // 8-byte Folded Reload
	add	x9, x9, x10
	add	x10, x22, x10
.LBB24_13:                              //   Parent Loop BB24_4 Depth=1
                                        // =>  This Inner Loop Header: Depth=2
	add	v0.8b, v0.8b, v4.8b
	ldr	d1, [x10], #8
	adds	x9, x9, #8
	add	v0.8b, v0.8b, v1.8b
	b.ne	.LBB24_13
// %bb.14:                              //   in Loop: Header=BB24_4 Depth=1
	addv	b0, v0.8b
	cmp	x19, x28
	mov	x11, x19
	fmov	w9, s0
	b.eq	.LBB24_17
.LBB24_15:                              // %.preheader
                                        //   in Loop: Header=BB24_4 Depth=1
	sub	x10, x28, x11
	add	x11, x22, x11
.LBB24_16:                              //   Parent Loop BB24_4 Depth=1
                                        // =>  This Inner Loop Header: Depth=2
	ldrb	w12, [x11], #1
	add	w9, w9, w20
	subs	x10, x10, #1
	add	w9, w9, w12
	b.ne	.LBB24_16
.LBB24_17:                              //   in Loop: Header=BB24_4 Depth=1
	ldr	d0, [x24, :lo12:init_value]
	fcvtzs	w10, d0
	add	w10, w20, w10
	ubfiz	w10, w10, #6, #2
	cmp	w10, w9, uxtb
	b.eq	.LBB24_3
// %bb.18:                              //   in Loop: Header=BB24_4 Depth=1
	ldr	w1, [x25, :lo12:current_test]
	adrp	x0, .L.str.179
	add	x0, x0, :lo12:.L.str.179
	bl	printf
	ldur	q4, [x29, #-16]                 // 16-byte Folded Reload
	ldr	w8, [x26, :lo12:iterations]
	b	.LBB24_3
.LBB24_19:
	adrp	x22, init_value
	mov	w19, wzr
	adrp	x21, .L.str.179
	add	x21, x21, :lo12:.L.str.179
	ldr	d0, [x22, :lo12:init_value]
	b	.LBB24_21
.LBB24_20:                              //   in Loop: Header=BB24_21 Depth=1
	add	w19, w19, #1
	cmp	w19, w8
	b.ge	.LBB24_23
.LBB24_21:                              // =>This Inner Loop Header: Depth=1
	fcvtzs	w9, d0
	add	w9, w20, w9
	tst	w9, #0x3
	b.eq	.LBB24_20
// %bb.22:                              //   in Loop: Header=BB24_21 Depth=1
	ldr	w1, [x25, :lo12:current_test]
	mov	x0, x21
	bl	printf
	ldr	d0, [x22, :lo12:init_value]
	ldr	w8, [x26, :lo12:iterations]
	b	.LBB24_20
.LBB24_23:
	bl	clock
	adrp	x22, results
	adrp	x21, allocated_results
	adrp	x9, start_time
	mov	x20, x0
	ldr	x0, [x22, :lo12:results]
	ldr	x19, [x9, :lo12:start_time]
	ldr	w9, [x21, :lo12:allocated_results]
	adrp	x8, end_time
	str	x20, [x8, :lo12:end_time]
	cbz	x0, .LBB24_25
// %bb.24:
	ldr	w8, [x25, :lo12:current_test]
	cmp	w8, w9
	b.lt	.LBB24_27
.LBB24_25:
	add	w8, w9, #10
	sbfiz	x1, x8, #4, #32
	str	w8, [x21, :lo12:allocated_results]
	bl	realloc
	str	x0, [x22, :lo12:results]
	cbz	x0, .LBB24_28
// %bb.26:
	ldr	w8, [x25, :lo12:current_test]
.LBB24_27:
	sub	x9, x20, x19
	ldr	x10, [sp, #8]                   // 8-byte Folded Reload
	scvtf	d0, x9
	mov	x9, #145685290680320            // =0x848000000000
	movk	x9, #16686, lsl #48
	fmov	d1, x9
	add	x9, x0, w8, sxtw #4
	add	w8, w8, #1
	str	x10, [x9, #8]
	fdiv	d0, d0, d1
	str	d0, [x9]
	str	w8, [x25, :lo12:current_test]
	.cfi_def_cfa wsp, 144
	ldp	x20, x19, [sp, #128]            // 16-byte Folded Reload
	ldp	x22, x21, [sp, #112]            // 16-byte Folded Reload
	ldp	x24, x23, [sp, #96]             // 16-byte Folded Reload
	ldp	x26, x25, [sp, #80]             // 16-byte Folded Reload
	ldp	x28, x27, [sp, #64]             // 16-byte Folded Reload
	ldp	x29, x30, [sp, #48]             // 16-byte Folded Reload
	add	sp, sp, #144
	.cfi_def_cfa_offset 0
	.cfi_restore w19
	.cfi_restore w20
	.cfi_restore w21
	.cfi_restore w22
	.cfi_restore w23
	.cfi_restore w24
	.cfi_restore w25
	.cfi_restore w26
	.cfi_restore w27
	.cfi_restore w28
	.cfi_restore w30
	.cfi_restore w29
	ret
.LBB24_28:
	.cfi_restore_state
	ldr	w1, [x21, :lo12:allocated_results]
	adrp	x0, .L.str
	add	x0, x0, :lo12:.L.str
	bl	printf
	mov	w0, #-1                         // =0xffffffff
	bl	exit
.Lfunc_end24:
	.size	_Z14test_variable1Ih19custom_add_variableIhEEvPT_iS2_PKc, .Lfunc_end24-_Z14test_variable1Ih19custom_add_variableIhEEvPT_iS2_PKc
	.cfi_endproc
                                        // -- End function
	.section	.text._Z22test_hoisted_variable1Ih19custom_add_variableIhEEvPT_iS2_PKc,"axG",@progbits,_Z22test_hoisted_variable1Ih19custom_add_variableIhEEvPT_iS2_PKc,comdat
	.weak	_Z22test_hoisted_variable1Ih19custom_add_variableIhEEvPT_iS2_PKc // -- Begin function _Z22test_hoisted_variable1Ih19custom_add_variableIhEEvPT_iS2_PKc
	.p2align	2
	.type	_Z22test_hoisted_variable1Ih19custom_add_variableIhEEvPT_iS2_PKc,@function
_Z22test_hoisted_variable1Ih19custom_add_variableIhEEvPT_iS2_PKc: // @_Z22test_hoisted_variable1Ih19custom_add_variableIhEEvPT_iS2_PKc
	.cfi_startproc
// %bb.0:
	sub	sp, sp, #128
	.cfi_def_cfa_offset 128
	stp	x29, x30, [sp, #32]             // 16-byte Folded Spill
	stp	x28, x27, [sp, #48]             // 16-byte Folded Spill
	stp	x26, x25, [sp, #64]             // 16-byte Folded Spill
	stp	x24, x23, [sp, #80]             // 16-byte Folded Spill
	stp	x22, x21, [sp, #96]             // 16-byte Folded Spill
	stp	x20, x19, [sp, #112]            // 16-byte Folded Spill
	add	x29, sp, #32
	.cfi_def_cfa w29, 96
	.cfi_offset w19, -8
	.cfi_offset w20, -16
	.cfi_offset w21, -24
	.cfi_offset w22, -32
	.cfi_offset w23, -40
	.cfi_offset w24, -48
	.cfi_offset w25, -56
	.cfi_offset w26, -64
	.cfi_offset w27, -72
	.cfi_offset w28, -80
	.cfi_offset w30, -88
	.cfi_offset w29, -96
	.cfi_remember_state
	str	x3, [sp, #16]                   // 8-byte Folded Spill
	mov	w20, w2
	mov	w21, w1
	mov	x22, x0
	bl	clock
	adrp	x8, iterations
	adrp	x9, start_time
	ldr	w8, [x8, :lo12:iterations]
	str	x0, [x9, :lo12:start_time]
	cmp	w8, #1
	b.lt	.LBB25_23
// %bb.1:
	mul	w27, w20, w21
	cmp	w21, #0
	b.le	.LBB25_19
// %bb.2:
	mov	w25, w21
	add	x9, x22, #16
	mov	w28, wzr
	and	x23, x25, #0x7ffffff8
	stur	x9, [x29, #-8]                  // 8-byte Folded Spill
	and	x19, x25, #0x7fffffe0
	and	x9, x25, #0x18
	neg	x24, x23
	adrp	x26, init_value
	str	x9, [sp, #8]                    // 8-byte Folded Spill
	b	.LBB25_4
.LBB25_3:                               //   in Loop: Header=BB25_4 Depth=1
	add	w28, w28, #1
	cmp	w28, w8
	b.ge	.LBB25_23
.LBB25_4:                               // =>This Loop Header: Depth=1
                                        //     Child Loop BB25_9 Depth 2
                                        //     Child Loop BB25_13 Depth 2
                                        //     Child Loop BB25_16 Depth 2
	cmp	w21, #7
	b.hi	.LBB25_6
// %bb.5:                               //   in Loop: Header=BB25_4 Depth=1
	mov	x11, xzr
	mov	w9, wzr
	b	.LBB25_15
.LBB25_6:                               //   in Loop: Header=BB25_4 Depth=1
	cmp	w21, #32
	b.hs	.LBB25_8
// %bb.7:                               //   in Loop: Header=BB25_4 Depth=1
	mov	x10, xzr
	mov	w9, wzr
	b	.LBB25_12
.LBB25_8:                               // %.preheader2
                                        //   in Loop: Header=BB25_4 Depth=1
	movi	v0.2d, #0000000000000000
	movi	v1.2d, #0000000000000000
	ldur	x9, [x29, #-8]                  // 8-byte Folded Reload
	mov	x10, x19
.LBB25_9:                               //   Parent Loop BB25_4 Depth=1
                                        // =>  This Inner Loop Header: Depth=2
	ldp	q2, q3, [x9, #-16]
	subs	x10, x10, #32
	add	x9, x9, #32
	add	v0.16b, v2.16b, v0.16b
	add	v1.16b, v3.16b, v1.16b
	b.ne	.LBB25_9
// %bb.10:                              //   in Loop: Header=BB25_4 Depth=1
	add	v0.16b, v1.16b, v0.16b
	cmp	x19, x25
	addv	b0, v0.16b
	fmov	w9, s0
	b.eq	.LBB25_17
// %bb.11:                              //   in Loop: Header=BB25_4 Depth=1
	ldr	x12, [sp, #8]                   // 8-byte Folded Reload
	mov	x11, x19
	mov	x10, x19
	cbz	x12, .LBB25_15
.LBB25_12:                              //   in Loop: Header=BB25_4 Depth=1
	movi	v0.2d, #0000000000000000
	mov	v0.b[0], w9
	add	x9, x24, x10
	add	x10, x22, x10
.LBB25_13:                              //   Parent Loop BB25_4 Depth=1
                                        // =>  This Inner Loop Header: Depth=2
	ldr	d1, [x10], #8
	adds	x9, x9, #8
	add	v0.8b, v1.8b, v0.8b
	b.ne	.LBB25_13
// %bb.14:                              //   in Loop: Header=BB25_4 Depth=1
	addv	b0, v0.8b
	cmp	x23, x25
	mov	x11, x23
	fmov	w9, s0
	b.eq	.LBB25_17
.LBB25_15:                              // %.preheader
                                        //   in Loop: Header=BB25_4 Depth=1
	sub	x10, x25, x11
	add	x11, x22, x11
.LBB25_16:                              //   Parent Loop BB25_4 Depth=1
                                        // =>  This Inner Loop Header: Depth=2
	ldrb	w12, [x11], #1
	subs	x10, x10, #1
	add	w9, w12, w9
	b.ne	.LBB25_16
.LBB25_17:                              //   in Loop: Header=BB25_4 Depth=1
	ldr	d0, [x26, :lo12:init_value]
	add	w9, w9, w27
	fcvtzs	w10, d0
	add	w10, w20, w10
	ubfiz	w10, w10, #6, #2
	cmp	w10, w9, uxtb
	b.eq	.LBB25_3
// %bb.18:                              //   in Loop: Header=BB25_4 Depth=1
	adrp	x8, current_test
	adrp	x0, .L.str.179
	add	x0, x0, :lo12:.L.str.179
	ldr	w1, [x8, :lo12:current_test]
	bl	printf
	adrp	x8, iterations
	ldr	w8, [x8, :lo12:iterations]
	b	.LBB25_3
.LBB25_19:
	adrp	x22, init_value
	mov	w19, wzr
	adrp	x21, .L.str.179
	add	x21, x21, :lo12:.L.str.179
	ldr	d0, [x22, :lo12:init_value]
	b	.LBB25_21
.LBB25_20:                              //   in Loop: Header=BB25_21 Depth=1
	add	w19, w19, #1
	cmp	w19, w8
	b.ge	.LBB25_23
.LBB25_21:                              // =>This Inner Loop Header: Depth=1
	fcvtzs	w9, d0
	add	w9, w20, w9
	ubfiz	w9, w9, #6, #2
	cmp	w9, w27, uxtb
	b.eq	.LBB25_20
// %bb.22:                              //   in Loop: Header=BB25_21 Depth=1
	adrp	x8, current_test
	mov	x0, x21
	ldr	w1, [x8, :lo12:current_test]
	bl	printf
	adrp	x8, iterations
	ldr	d0, [x22, :lo12:init_value]
	ldr	w8, [x8, :lo12:iterations]
	b	.LBB25_20
.LBB25_23:
	bl	clock
	adrp	x22, results
	adrp	x21, allocated_results
	adrp	x9, start_time
	mov	x20, x0
	ldr	x0, [x22, :lo12:results]
	ldr	x19, [x9, :lo12:start_time]
	ldr	w9, [x21, :lo12:allocated_results]
	adrp	x8, end_time
	adrp	x23, current_test
	str	x20, [x8, :lo12:end_time]
	cbz	x0, .LBB25_25
// %bb.24:
	ldr	w8, [x23, :lo12:current_test]
	cmp	w8, w9
	b.lt	.LBB25_27
.LBB25_25:
	add	w8, w9, #10
	sbfiz	x1, x8, #4, #32
	str	w8, [x21, :lo12:allocated_results]
	bl	realloc
	str	x0, [x22, :lo12:results]
	cbz	x0, .LBB25_28
// %bb.26:
	ldr	w8, [x23, :lo12:current_test]
.LBB25_27:
	sub	x9, x20, x19
	ldr	x10, [sp, #16]                  // 8-byte Folded Reload
	scvtf	d0, x9
	mov	x9, #145685290680320            // =0x848000000000
	movk	x9, #16686, lsl #48
	fmov	d1, x9
	add	x9, x0, w8, sxtw #4
	add	w8, w8, #1
	str	x10, [x9, #8]
	fdiv	d0, d0, d1
	str	d0, [x9]
	str	w8, [x23, :lo12:current_test]
	.cfi_def_cfa wsp, 128
	ldp	x20, x19, [sp, #112]            // 16-byte Folded Reload
	ldp	x22, x21, [sp, #96]             // 16-byte Folded Reload
	ldp	x24, x23, [sp, #80]             // 16-byte Folded Reload
	ldp	x26, x25, [sp, #64]             // 16-byte Folded Reload
	ldp	x28, x27, [sp, #48]             // 16-byte Folded Reload
	ldp	x29, x30, [sp, #32]             // 16-byte Folded Reload
	add	sp, sp, #128
	.cfi_def_cfa_offset 0
	.cfi_restore w19
	.cfi_restore w20
	.cfi_restore w21
	.cfi_restore w22
	.cfi_restore w23
	.cfi_restore w24
	.cfi_restore w25
	.cfi_restore w26
	.cfi_restore w27
	.cfi_restore w28
	.cfi_restore w30
	.cfi_restore w29
	ret
.LBB25_28:
	.cfi_restore_state
	ldr	w1, [x21, :lo12:allocated_results]
	adrp	x0, .L.str
	add	x0, x0, :lo12:.L.str
	bl	printf
	mov	w0, #-1                         // =0xffffffff
	bl	exit
.Lfunc_end25:
	.size	_Z22test_hoisted_variable1Ih19custom_add_variableIhEEvPT_iS2_PKc, .Lfunc_end25-_Z22test_hoisted_variable1Ih19custom_add_variableIhEEvPT_iS2_PKc
	.cfi_endproc
                                        // -- End function
	.section	.text._Z14test_variable4Ih28custom_add_multiple_variableIhEEvPT_iS2_S2_S2_S2_PKc,"axG",@progbits,_Z14test_variable4Ih28custom_add_multiple_variableIhEEvPT_iS2_S2_S2_S2_PKc,comdat
	.weak	_Z14test_variable4Ih28custom_add_multiple_variableIhEEvPT_iS2_S2_S2_S2_PKc // -- Begin function _Z14test_variable4Ih28custom_add_multiple_variableIhEEvPT_iS2_S2_S2_S2_PKc
	.p2align	2
	.type	_Z14test_variable4Ih28custom_add_multiple_variableIhEEvPT_iS2_S2_S2_S2_PKc,@function
_Z14test_variable4Ih28custom_add_multiple_variableIhEEvPT_iS2_S2_S2_S2_PKc: // @_Z14test_variable4Ih28custom_add_multiple_variableIhEEvPT_iS2_S2_S2_S2_PKc
	.cfi_startproc
// %bb.0:
	sub	sp, sp, #144
	.cfi_def_cfa_offset 144
	stp	x29, x30, [sp, #48]             // 16-byte Folded Spill
	stp	x28, x27, [sp, #64]             // 16-byte Folded Spill
	stp	x26, x25, [sp, #80]             // 16-byte Folded Spill
	stp	x24, x23, [sp, #96]             // 16-byte Folded Spill
	stp	x22, x21, [sp, #112]            // 16-byte Folded Spill
	stp	x20, x19, [sp, #128]            // 16-byte Folded Spill
	add	x29, sp, #48
	.cfi_def_cfa w29, 96
	.cfi_offset w19, -8
	.cfi_offset w20, -16
	.cfi_offset w21, -24
	.cfi_offset w22, -32
	.cfi_offset w23, -40
	.cfi_offset w24, -48
	.cfi_offset w25, -56
	.cfi_offset w26, -64
	.cfi_offset w27, -72
	.cfi_offset w28, -80
	.cfi_offset w30, -88
	.cfi_offset w29, -96
	.cfi_remember_state
	str	x6, [sp, #8]                    // 8-byte Folded Spill
	mov	w22, w5
	mov	w24, w4
	mov	w23, w3
	mov	w25, w2
	mov	w20, w1
	mov	x21, x0
	bl	clock
	adrp	x28, iterations
	adrp	x9, start_time
	adrp	x27, current_test
	ldr	w8, [x28, :lo12:iterations]
	str	x0, [x9, :lo12:start_time]
	cmp	w8, #1
	b.lt	.LBB26_23
// %bb.1:
	add	w9, w24, w22
	add	w10, w23, w25
	cmp	w20, #0
	add	w23, w10, w9
	b.le	.LBB26_19
// %bb.2:
	mov	w25, w20
	dup	v4.16b, w23
	mov	w24, wzr
	and	x19, x25, #0x7ffffff8
	and	x9, x25, #0x18
	add	x10, x21, #16
	and	x22, x25, #0x7fffffe0
	str	x9, [sp]                        // 8-byte Folded Spill
	neg	x9, x19
	adrp	x26, init_value
	stp	x10, x9, [sp, #16]              // 16-byte Folded Spill
	stur	q4, [x29, #-16]                 // 16-byte Folded Spill
	b	.LBB26_4
.LBB26_3:                               //   in Loop: Header=BB26_4 Depth=1
	add	w24, w24, #1
	cmp	w24, w8
	b.ge	.LBB26_23
.LBB26_4:                               // =>This Loop Header: Depth=1
                                        //     Child Loop BB26_9 Depth 2
                                        //     Child Loop BB26_13 Depth 2
                                        //     Child Loop BB26_16 Depth 2
	cmp	w20, #7
	b.hi	.LBB26_6
// %bb.5:                               //   in Loop: Header=BB26_4 Depth=1
	mov	x11, xzr
	mov	w9, wzr
	b	.LBB26_15
.LBB26_6:                               //   in Loop: Header=BB26_4 Depth=1
	cmp	w20, #32
	b.hs	.LBB26_8
// %bb.7:                               //   in Loop: Header=BB26_4 Depth=1
	mov	x10, xzr
	mov	w9, wzr
	b	.LBB26_12
.LBB26_8:                               // %.preheader2
                                        //   in Loop: Header=BB26_4 Depth=1
	movi	v0.2d, #0000000000000000
	movi	v1.2d, #0000000000000000
	ldr	x9, [sp, #16]                   // 8-byte Folded Reload
	mov	x10, x22
.LBB26_9:                               //   Parent Loop BB26_4 Depth=1
                                        // =>  This Inner Loop Header: Depth=2
	add	v0.16b, v4.16b, v0.16b
	add	v1.16b, v4.16b, v1.16b
	subs	x10, x10, #32
	ldp	q2, q3, [x9, #-16]
	add	x9, x9, #32
	add	v0.16b, v0.16b, v2.16b
	add	v1.16b, v1.16b, v3.16b
	b.ne	.LBB26_9
// %bb.10:                              //   in Loop: Header=BB26_4 Depth=1
	add	v0.16b, v1.16b, v0.16b
	cmp	x22, x25
	addv	b0, v0.16b
	fmov	w9, s0
	b.eq	.LBB26_17
// %bb.11:                              //   in Loop: Header=BB26_4 Depth=1
	ldr	x12, [sp]                       // 8-byte Folded Reload
	mov	x11, x22
	mov	x10, x22
	cbz	x12, .LBB26_15
.LBB26_12:                              //   in Loop: Header=BB26_4 Depth=1
	movi	v0.2d, #0000000000000000
	mov	v0.b[0], w9
	ldr	x9, [sp, #24]                   // 8-byte Folded Reload
	add	x9, x9, x10
	add	x10, x21, x10
.LBB26_13:                              //   Parent Loop BB26_4 Depth=1
                                        // =>  This Inner Loop Header: Depth=2
	add	v0.8b, v4.8b, v0.8b
	ldr	d1, [x10], #8
	adds	x9, x9, #8
	add	v0.8b, v0.8b, v1.8b
	b.ne	.LBB26_13
// %bb.14:                              //   in Loop: Header=BB26_4 Depth=1
	addv	b0, v0.8b
	cmp	x19, x25
	mov	x11, x19
	fmov	w9, s0
	b.eq	.LBB26_17
.LBB26_15:                              // %.preheader
                                        //   in Loop: Header=BB26_4 Depth=1
	sub	x10, x25, x11
	add	x11, x21, x11
.LBB26_16:                              //   Parent Loop BB26_4 Depth=1
                                        // =>  This Inner Loop Header: Depth=2
	ldrb	w12, [x11], #1
	add	w9, w23, w9
	subs	x10, x10, #1
	add	w9, w9, w12
	b.ne	.LBB26_16
.LBB26_17:                              //   in Loop: Header=BB26_4 Depth=1
	ldr	d0, [x26, :lo12:init_value]
	fcvtzs	w10, d0
	add	w10, w23, w10
	ubfiz	w10, w10, #6, #2
	cmp	w10, w9, uxtb
	b.eq	.LBB26_3
// %bb.18:                              //   in Loop: Header=BB26_4 Depth=1
	ldr	w1, [x27, :lo12:current_test]
	adrp	x0, .L.str.179
	add	x0, x0, :lo12:.L.str.179
	bl	printf
	ldur	q4, [x29, #-16]                 // 16-byte Folded Reload
	ldr	w8, [x28, :lo12:iterations]
	b	.LBB26_3
.LBB26_19:
	adrp	x21, init_value
	mov	w19, wzr
	adrp	x20, .L.str.179
	add	x20, x20, :lo12:.L.str.179
	ldr	d0, [x21, :lo12:init_value]
	b	.LBB26_21
.LBB26_20:                              //   in Loop: Header=BB26_21 Depth=1
	add	w19, w19, #1
	cmp	w19, w8
	b.ge	.LBB26_23
.LBB26_21:                              // =>This Inner Loop Header: Depth=1
	fcvtzs	w9, d0
	add	w9, w23, w9
	tst	w9, #0x3
	b.eq	.LBB26_20
// %bb.22:                              //   in Loop: Header=BB26_21 Depth=1
	ldr	w1, [x27, :lo12:current_test]
	mov	x0, x20
	bl	printf
	ldr	d0, [x21, :lo12:init_value]
	ldr	w8, [x28, :lo12:iterations]
	b	.LBB26_20
.LBB26_23:
	bl	clock
	adrp	x22, results
	adrp	x21, allocated_results
	adrp	x9, start_time
	mov	x20, x0
	ldr	x0, [x22, :lo12:results]
	ldr	x19, [x9, :lo12:start_time]
	ldr	w9, [x21, :lo12:allocated_results]
	adrp	x8, end_time
	str	x20, [x8, :lo12:end_time]
	cbz	x0, .LBB26_25
// %bb.24:
	ldr	w8, [x27, :lo12:current_test]
	cmp	w8, w9
	b.lt	.LBB26_27
.LBB26_25:
	add	w8, w9, #10
	sbfiz	x1, x8, #4, #32
	str	w8, [x21, :lo12:allocated_results]
	bl	realloc
	str	x0, [x22, :lo12:results]
	cbz	x0, .LBB26_28
// %bb.26:
	ldr	w8, [x27, :lo12:current_test]
.LBB26_27:
	sub	x9, x20, x19
	ldr	x10, [sp, #8]                   // 8-byte Folded Reload
	scvtf	d0, x9
	mov	x9, #145685290680320            // =0x848000000000
	movk	x9, #16686, lsl #48
	fmov	d1, x9
	add	x9, x0, w8, sxtw #4
	add	w8, w8, #1
	str	x10, [x9, #8]
	fdiv	d0, d0, d1
	str	d0, [x9]
	str	w8, [x27, :lo12:current_test]
	.cfi_def_cfa wsp, 144
	ldp	x20, x19, [sp, #128]            // 16-byte Folded Reload
	ldp	x22, x21, [sp, #112]            // 16-byte Folded Reload
	ldp	x24, x23, [sp, #96]             // 16-byte Folded Reload
	ldp	x26, x25, [sp, #80]             // 16-byte Folded Reload
	ldp	x28, x27, [sp, #64]             // 16-byte Folded Reload
	ldp	x29, x30, [sp, #48]             // 16-byte Folded Reload
	add	sp, sp, #144
	.cfi_def_cfa_offset 0
	.cfi_restore w19
	.cfi_restore w20
	.cfi_restore w21
	.cfi_restore w22
	.cfi_restore w23
	.cfi_restore w24
	.cfi_restore w25
	.cfi_restore w26
	.cfi_restore w27
	.cfi_restore w28
	.cfi_restore w30
	.cfi_restore w29
	ret
.LBB26_28:
	.cfi_restore_state
	ldr	w1, [x21, :lo12:allocated_results]
	adrp	x0, .L.str
	add	x0, x0, :lo12:.L.str
	bl	printf
	mov	w0, #-1                         // =0xffffffff
	bl	exit
.Lfunc_end26:
	.size	_Z14test_variable4Ih28custom_add_multiple_variableIhEEvPT_iS2_S2_S2_S2_PKc, .Lfunc_end26-_Z14test_variable4Ih28custom_add_multiple_variableIhEEvPT_iS2_S2_S2_S2_PKc
	.cfi_endproc
                                        // -- End function
	.section	.text._Z14test_variable1Ih19custom_sub_variableIhEEvPT_iS2_PKc,"axG",@progbits,_Z14test_variable1Ih19custom_sub_variableIhEEvPT_iS2_PKc,comdat
	.weak	_Z14test_variable1Ih19custom_sub_variableIhEEvPT_iS2_PKc // -- Begin function _Z14test_variable1Ih19custom_sub_variableIhEEvPT_iS2_PKc
	.p2align	2
	.type	_Z14test_variable1Ih19custom_sub_variableIhEEvPT_iS2_PKc,@function
_Z14test_variable1Ih19custom_sub_variableIhEEvPT_iS2_PKc: // @_Z14test_variable1Ih19custom_sub_variableIhEEvPT_iS2_PKc
	.cfi_startproc
// %bb.0:
	sub	sp, sp, #144
	.cfi_def_cfa_offset 144
	stp	x29, x30, [sp, #48]             // 16-byte Folded Spill
	stp	x28, x27, [sp, #64]             // 16-byte Folded Spill
	stp	x26, x25, [sp, #80]             // 16-byte Folded Spill
	stp	x24, x23, [sp, #96]             // 16-byte Folded Spill
	stp	x22, x21, [sp, #112]            // 16-byte Folded Spill
	stp	x20, x19, [sp, #128]            // 16-byte Folded Spill
	add	x29, sp, #48
	.cfi_def_cfa w29, 96
	.cfi_offset w19, -8
	.cfi_offset w20, -16
	.cfi_offset w21, -24
	.cfi_offset w22, -32
	.cfi_offset w23, -40
	.cfi_offset w24, -48
	.cfi_offset w25, -56
	.cfi_offset w26, -64
	.cfi_offset w27, -72
	.cfi_offset w28, -80
	.cfi_offset w30, -88
	.cfi_offset w29, -96
	.cfi_remember_state
	str	x3, [sp, #8]                    // 8-byte Folded Spill
	mov	w20, w2
	mov	w21, w1
	mov	x22, x0
	bl	clock
	adrp	x26, iterations
	adrp	x9, start_time
	adrp	x25, current_test
	ldr	w8, [x26, :lo12:iterations]
	str	x0, [x9, :lo12:start_time]
	cmp	w8, #1
	b.lt	.LBB27_23
// %bb.1:
	cmp	w21, #0
	b.le	.LBB27_19
// %bb.2:
	mov	w28, w21
	dup	v4.16b, w20
	mov	w27, wzr
	and	x19, x28, #0x7ffffff8
	and	x9, x28, #0x18
	add	x10, x22, #16
	and	x23, x28, #0x7fffffe0
	str	x9, [sp]                        // 8-byte Folded Spill
	neg	x9, x19
	adrp	x24, init_value
	stp	x10, x9, [sp, #16]              // 16-byte Folded Spill
	stur	q4, [x29, #-16]                 // 16-byte Folded Spill
	b	.LBB27_4
.LBB27_3:                               //   in Loop: Header=BB27_4 Depth=1
	add	w27, w27, #1
	cmp	w27, w8
	b.ge	.LBB27_23
.LBB27_4:                               // =>This Loop Header: Depth=1
                                        //     Child Loop BB27_9 Depth 2
                                        //     Child Loop BB27_13 Depth 2
                                        //     Child Loop BB27_16 Depth 2
	cmp	w21, #7
	b.hi	.LBB27_6
// %bb.5:                               //   in Loop: Header=BB27_4 Depth=1
	mov	x11, xzr
	mov	w9, wzr
	b	.LBB27_15
.LBB27_6:                               //   in Loop: Header=BB27_4 Depth=1
	cmp	w21, #32
	b.hs	.LBB27_8
// %bb.7:                               //   in Loop: Header=BB27_4 Depth=1
	mov	x10, xzr
	mov	w9, wzr
	b	.LBB27_12
.LBB27_8:                               // %.preheader2
                                        //   in Loop: Header=BB27_4 Depth=1
	movi	v0.2d, #0000000000000000
	movi	v1.2d, #0000000000000000
	ldr	x9, [sp, #16]                   // 8-byte Folded Reload
	mov	x10, x23
.LBB27_9:                               //   Parent Loop BB27_4 Depth=1
                                        // =>  This Inner Loop Header: Depth=2
	sub	v0.16b, v0.16b, v4.16b
	sub	v1.16b, v1.16b, v4.16b
	subs	x10, x10, #32
	ldp	q2, q3, [x9, #-16]
	add	x9, x9, #32
	add	v0.16b, v0.16b, v2.16b
	add	v1.16b, v1.16b, v3.16b
	b.ne	.LBB27_9
// %bb.10:                              //   in Loop: Header=BB27_4 Depth=1
	add	v0.16b, v1.16b, v0.16b
	cmp	x23, x28
	addv	b0, v0.16b
	fmov	w9, s0
	b.eq	.LBB27_17
// %bb.11:                              //   in Loop: Header=BB27_4 Depth=1
	ldr	x12, [sp]                       // 8-byte Folded Reload
	mov	x11, x23
	mov	x10, x23
	cbz	x12, .LBB27_15
.LBB27_12:                              //   in Loop: Header=BB27_4 Depth=1
	movi	v0.2d, #0000000000000000
	mov	v0.b[0], w9
	ldr	x9, [sp, #24]                   // 8-byte Folded Reload
	add	x9, x9, x10
	add	x10, x22, x10
.LBB27_13:                              //   Parent Loop BB27_4 Depth=1
                                        // =>  This Inner Loop Header: Depth=2
	sub	v0.8b, v0.8b, v4.8b
	ldr	d1, [x10], #8
	adds	x9, x9, #8
	add	v0.8b, v0.8b, v1.8b
	b.ne	.LBB27_13
// %bb.14:                              //   in Loop: Header=BB27_4 Depth=1
	addv	b0, v0.8b
	cmp	x19, x28
	mov	x11, x19
	fmov	w9, s0
	b.eq	.LBB27_17
.LBB27_15:                              // %.preheader
                                        //   in Loop: Header=BB27_4 Depth=1
	sub	x10, x28, x11
	add	x11, x22, x11
.LBB27_16:                              //   Parent Loop BB27_4 Depth=1
                                        // =>  This Inner Loop Header: Depth=2
	ldrb	w12, [x11], #1
	sub	w9, w9, w20
	subs	x10, x10, #1
	add	w9, w9, w12
	b.ne	.LBB27_16
.LBB27_17:                              //   in Loop: Header=BB27_4 Depth=1
	ldr	d0, [x24, :lo12:init_value]
	fcvtzs	w10, d0
	sub	w10, w10, w20
	ubfiz	w10, w10, #6, #2
	cmp	w10, w9, uxtb
	b.eq	.LBB27_3
// %bb.18:                              //   in Loop: Header=BB27_4 Depth=1
	ldr	w1, [x25, :lo12:current_test]
	adrp	x0, .L.str.179
	add	x0, x0, :lo12:.L.str.179
	bl	printf
	ldur	q4, [x29, #-16]                 // 16-byte Folded Reload
	ldr	w8, [x26, :lo12:iterations]
	b	.LBB27_3
.LBB27_19:
	adrp	x22, init_value
	mov	w19, wzr
	adrp	x21, .L.str.179
	add	x21, x21, :lo12:.L.str.179
	ldr	d0, [x22, :lo12:init_value]
	b	.LBB27_21
.LBB27_20:                              //   in Loop: Header=BB27_21 Depth=1
	add	w19, w19, #1
	cmp	w19, w8
	b.ge	.LBB27_23
.LBB27_21:                              // =>This Inner Loop Header: Depth=1
	fcvtzs	w9, d0
	sub	w9, w9, w20
	tst	w9, #0x3
	b.eq	.LBB27_20
// %bb.22:                              //   in Loop: Header=BB27_21 Depth=1
	ldr	w1, [x25, :lo12:current_test]
	mov	x0, x21
	bl	printf
	ldr	d0, [x22, :lo12:init_value]
	ldr	w8, [x26, :lo12:iterations]
	b	.LBB27_20
.LBB27_23:
	bl	clock
	adrp	x22, results
	adrp	x21, allocated_results
	adrp	x9, start_time
	mov	x20, x0
	ldr	x0, [x22, :lo12:results]
	ldr	x19, [x9, :lo12:start_time]
	ldr	w9, [x21, :lo12:allocated_results]
	adrp	x8, end_time
	str	x20, [x8, :lo12:end_time]
	cbz	x0, .LBB27_25
// %bb.24:
	ldr	w8, [x25, :lo12:current_test]
	cmp	w8, w9
	b.lt	.LBB27_27
.LBB27_25:
	add	w8, w9, #10
	sbfiz	x1, x8, #4, #32
	str	w8, [x21, :lo12:allocated_results]
	bl	realloc
	str	x0, [x22, :lo12:results]
	cbz	x0, .LBB27_28
// %bb.26:
	ldr	w8, [x25, :lo12:current_test]
.LBB27_27:
	sub	x9, x20, x19
	ldr	x10, [sp, #8]                   // 8-byte Folded Reload
	scvtf	d0, x9
	mov	x9, #145685290680320            // =0x848000000000
	movk	x9, #16686, lsl #48
	fmov	d1, x9
	add	x9, x0, w8, sxtw #4
	add	w8, w8, #1
	str	x10, [x9, #8]
	fdiv	d0, d0, d1
	str	d0, [x9]
	str	w8, [x25, :lo12:current_test]
	.cfi_def_cfa wsp, 144
	ldp	x20, x19, [sp, #128]            // 16-byte Folded Reload
	ldp	x22, x21, [sp, #112]            // 16-byte Folded Reload
	ldp	x24, x23, [sp, #96]             // 16-byte Folded Reload
	ldp	x26, x25, [sp, #80]             // 16-byte Folded Reload
	ldp	x28, x27, [sp, #64]             // 16-byte Folded Reload
	ldp	x29, x30, [sp, #48]             // 16-byte Folded Reload
	add	sp, sp, #144
	.cfi_def_cfa_offset 0
	.cfi_restore w19
	.cfi_restore w20
	.cfi_restore w21
	.cfi_restore w22
	.cfi_restore w23
	.cfi_restore w24
	.cfi_restore w25
	.cfi_restore w26
	.cfi_restore w27
	.cfi_restore w28
	.cfi_restore w30
	.cfi_restore w29
	ret
.LBB27_28:
	.cfi_restore_state
	ldr	w1, [x21, :lo12:allocated_results]
	adrp	x0, .L.str
	add	x0, x0, :lo12:.L.str
	bl	printf
	mov	w0, #-1                         // =0xffffffff
	bl	exit
.Lfunc_end27:
	.size	_Z14test_variable1Ih19custom_sub_variableIhEEvPT_iS2_PKc, .Lfunc_end27-_Z14test_variable1Ih19custom_sub_variableIhEEvPT_iS2_PKc
	.cfi_endproc
                                        // -- End function
	.section	.text._Z14test_variable4Ih28custom_sub_multiple_variableIhEEvPT_iS2_S2_S2_S2_PKc,"axG",@progbits,_Z14test_variable4Ih28custom_sub_multiple_variableIhEEvPT_iS2_S2_S2_S2_PKc,comdat
	.weak	_Z14test_variable4Ih28custom_sub_multiple_variableIhEEvPT_iS2_S2_S2_S2_PKc // -- Begin function _Z14test_variable4Ih28custom_sub_multiple_variableIhEEvPT_iS2_S2_S2_S2_PKc
	.p2align	2
	.type	_Z14test_variable4Ih28custom_sub_multiple_variableIhEEvPT_iS2_S2_S2_S2_PKc,@function
_Z14test_variable4Ih28custom_sub_multiple_variableIhEEvPT_iS2_S2_S2_S2_PKc: // @_Z14test_variable4Ih28custom_sub_multiple_variableIhEEvPT_iS2_S2_S2_S2_PKc
	.cfi_startproc
// %bb.0:
	sub	sp, sp, #144
	.cfi_def_cfa_offset 144
	stp	x29, x30, [sp, #48]             // 16-byte Folded Spill
	stp	x28, x27, [sp, #64]             // 16-byte Folded Spill
	stp	x26, x25, [sp, #80]             // 16-byte Folded Spill
	stp	x24, x23, [sp, #96]             // 16-byte Folded Spill
	stp	x22, x21, [sp, #112]            // 16-byte Folded Spill
	stp	x20, x19, [sp, #128]            // 16-byte Folded Spill
	add	x29, sp, #48
	.cfi_def_cfa w29, 96
	.cfi_offset w19, -8
	.cfi_offset w20, -16
	.cfi_offset w21, -24
	.cfi_offset w22, -32
	.cfi_offset w23, -40
	.cfi_offset w24, -48
	.cfi_offset w25, -56
	.cfi_offset w26, -64
	.cfi_offset w27, -72
	.cfi_offset w28, -80
	.cfi_offset w30, -88
	.cfi_offset w29, -96
	.cfi_remember_state
	str	x6, [sp, #8]                    // 8-byte Folded Spill
	mov	w22, w5
	mov	w24, w4
	mov	w23, w3
	mov	w25, w2
	mov	w20, w1
	mov	x21, x0
	bl	clock
	adrp	x28, iterations
	adrp	x9, start_time
	adrp	x27, current_test
	ldr	w8, [x28, :lo12:iterations]
	str	x0, [x9, :lo12:start_time]
	cmp	w8, #1
	b.lt	.LBB28_23
// %bb.1:
	add	w9, w24, w22
	add	w10, w23, w25
	cmp	w20, #0
	add	w23, w10, w9
	b.le	.LBB28_19
// %bb.2:
	mov	w25, w20
	dup	v4.16b, w23
	mov	w24, wzr
	and	x19, x25, #0x7ffffff8
	and	x9, x25, #0x18
	add	x10, x21, #16
	and	x22, x25, #0x7fffffe0
	str	x9, [sp]                        // 8-byte Folded Spill
	neg	x9, x19
	adrp	x26, init_value
	stp	x10, x9, [sp, #16]              // 16-byte Folded Spill
	stur	q4, [x29, #-16]                 // 16-byte Folded Spill
	b	.LBB28_4
.LBB28_3:                               //   in Loop: Header=BB28_4 Depth=1
	add	w24, w24, #1
	cmp	w24, w8
	b.ge	.LBB28_23
.LBB28_4:                               // =>This Loop Header: Depth=1
                                        //     Child Loop BB28_9 Depth 2
                                        //     Child Loop BB28_13 Depth 2
                                        //     Child Loop BB28_16 Depth 2
	cmp	w20, #7
	b.hi	.LBB28_6
// %bb.5:                               //   in Loop: Header=BB28_4 Depth=1
	mov	x11, xzr
	mov	w9, wzr
	b	.LBB28_15
.LBB28_6:                               //   in Loop: Header=BB28_4 Depth=1
	cmp	w20, #32
	b.hs	.LBB28_8
// %bb.7:                               //   in Loop: Header=BB28_4 Depth=1
	mov	x10, xzr
	mov	w9, wzr
	b	.LBB28_12
.LBB28_8:                               // %.preheader2
                                        //   in Loop: Header=BB28_4 Depth=1
	movi	v0.2d, #0000000000000000
	movi	v1.2d, #0000000000000000
	ldr	x9, [sp, #16]                   // 8-byte Folded Reload
	mov	x10, x22
.LBB28_9:                               //   Parent Loop BB28_4 Depth=1
                                        // =>  This Inner Loop Header: Depth=2
	sub	v0.16b, v0.16b, v4.16b
	sub	v1.16b, v1.16b, v4.16b
	subs	x10, x10, #32
	ldp	q2, q3, [x9, #-16]
	add	x9, x9, #32
	add	v0.16b, v0.16b, v2.16b
	add	v1.16b, v1.16b, v3.16b
	b.ne	.LBB28_9
// %bb.10:                              //   in Loop: Header=BB28_4 Depth=1
	add	v0.16b, v1.16b, v0.16b
	cmp	x22, x25
	addv	b0, v0.16b
	fmov	w9, s0
	b.eq	.LBB28_17
// %bb.11:                              //   in Loop: Header=BB28_4 Depth=1
	ldr	x12, [sp]                       // 8-byte Folded Reload
	mov	x11, x22
	mov	x10, x22
	cbz	x12, .LBB28_15
.LBB28_12:                              //   in Loop: Header=BB28_4 Depth=1
	movi	v0.2d, #0000000000000000
	mov	v0.b[0], w9
	ldr	x9, [sp, #24]                   // 8-byte Folded Reload
	add	x9, x9, x10
	add	x10, x21, x10
.LBB28_13:                              //   Parent Loop BB28_4 Depth=1
                                        // =>  This Inner Loop Header: Depth=2
	sub	v0.8b, v0.8b, v4.8b
	ldr	d1, [x10], #8
	adds	x9, x9, #8
	add	v0.8b, v0.8b, v1.8b
	b.ne	.LBB28_13
// %bb.14:                              //   in Loop: Header=BB28_4 Depth=1
	addv	b0, v0.8b
	cmp	x19, x25
	mov	x11, x19
	fmov	w9, s0
	b.eq	.LBB28_17
.LBB28_15:                              // %.preheader
                                        //   in Loop: Header=BB28_4 Depth=1
	sub	x10, x25, x11
	add	x11, x21, x11
.LBB28_16:                              //   Parent Loop BB28_4 Depth=1
                                        // =>  This Inner Loop Header: Depth=2
	ldrb	w12, [x11], #1
	sub	w9, w9, w23
	subs	x10, x10, #1
	add	w9, w9, w12
	b.ne	.LBB28_16
.LBB28_17:                              //   in Loop: Header=BB28_4 Depth=1
	ldr	d0, [x26, :lo12:init_value]
	fcvtzs	w10, d0
	sub	w10, w10, w23
	ubfiz	w10, w10, #6, #2
	cmp	w10, w9, uxtb
	b.eq	.LBB28_3
// %bb.18:                              //   in Loop: Header=BB28_4 Depth=1
	ldr	w1, [x27, :lo12:current_test]
	adrp	x0, .L.str.179
	add	x0, x0, :lo12:.L.str.179
	bl	printf
	ldur	q4, [x29, #-16]                 // 16-byte Folded Reload
	ldr	w8, [x28, :lo12:iterations]
	b	.LBB28_3
.LBB28_19:
	adrp	x21, init_value
	mov	w19, wzr
	adrp	x20, .L.str.179
	add	x20, x20, :lo12:.L.str.179
	ldr	d0, [x21, :lo12:init_value]
	b	.LBB28_21
.LBB28_20:                              //   in Loop: Header=BB28_21 Depth=1
	add	w19, w19, #1
	cmp	w19, w8
	b.ge	.LBB28_23
.LBB28_21:                              // =>This Inner Loop Header: Depth=1
	fcvtzs	w9, d0
	sub	w9, w9, w23
	tst	w9, #0x3
	b.eq	.LBB28_20
// %bb.22:                              //   in Loop: Header=BB28_21 Depth=1
	ldr	w1, [x27, :lo12:current_test]
	mov	x0, x20
	bl	printf
	ldr	d0, [x21, :lo12:init_value]
	ldr	w8, [x28, :lo12:iterations]
	b	.LBB28_20
.LBB28_23:
	bl	clock
	adrp	x22, results
	adrp	x21, allocated_results
	adrp	x9, start_time
	mov	x20, x0
	ldr	x0, [x22, :lo12:results]
	ldr	x19, [x9, :lo12:start_time]
	ldr	w9, [x21, :lo12:allocated_results]
	adrp	x8, end_time
	str	x20, [x8, :lo12:end_time]
	cbz	x0, .LBB28_25
// %bb.24:
	ldr	w8, [x27, :lo12:current_test]
	cmp	w8, w9
	b.lt	.LBB28_27
.LBB28_25:
	add	w8, w9, #10
	sbfiz	x1, x8, #4, #32
	str	w8, [x21, :lo12:allocated_results]
	bl	realloc
	str	x0, [x22, :lo12:results]
	cbz	x0, .LBB28_28
// %bb.26:
	ldr	w8, [x27, :lo12:current_test]
.LBB28_27:
	sub	x9, x20, x19
	ldr	x10, [sp, #8]                   // 8-byte Folded Reload
	scvtf	d0, x9
	mov	x9, #145685290680320            // =0x848000000000
	movk	x9, #16686, lsl #48
	fmov	d1, x9
	add	x9, x0, w8, sxtw #4
	add	w8, w8, #1
	str	x10, [x9, #8]
	fdiv	d0, d0, d1
	str	d0, [x9]
	str	w8, [x27, :lo12:current_test]
	.cfi_def_cfa wsp, 144
	ldp	x20, x19, [sp, #128]            // 16-byte Folded Reload
	ldp	x22, x21, [sp, #112]            // 16-byte Folded Reload
	ldp	x24, x23, [sp, #96]             // 16-byte Folded Reload
	ldp	x26, x25, [sp, #80]             // 16-byte Folded Reload
	ldp	x28, x27, [sp, #64]             // 16-byte Folded Reload
	ldp	x29, x30, [sp, #48]             // 16-byte Folded Reload
	add	sp, sp, #144
	.cfi_def_cfa_offset 0
	.cfi_restore w19
	.cfi_restore w20
	.cfi_restore w21
	.cfi_restore w22
	.cfi_restore w23
	.cfi_restore w24
	.cfi_restore w25
	.cfi_restore w26
	.cfi_restore w27
	.cfi_restore w28
	.cfi_restore w30
	.cfi_restore w29
	ret
.LBB28_28:
	.cfi_restore_state
	ldr	w1, [x21, :lo12:allocated_results]
	adrp	x0, .L.str
	add	x0, x0, :lo12:.L.str
	bl	printf
	mov	w0, #-1                         // =0xffffffff
	bl	exit
.Lfunc_end28:
	.size	_Z14test_variable4Ih28custom_sub_multiple_variableIhEEvPT_iS2_S2_S2_S2_PKc, .Lfunc_end28-_Z14test_variable4Ih28custom_sub_multiple_variableIhEEvPT_iS2_S2_S2_S2_PKc
	.cfi_endproc
                                        // -- End function
	.section	.text._Z14test_variable1Ih24custom_multiply_variableIhEEvPT_iS2_PKc,"axG",@progbits,_Z14test_variable1Ih24custom_multiply_variableIhEEvPT_iS2_PKc,comdat
	.weak	_Z14test_variable1Ih24custom_multiply_variableIhEEvPT_iS2_PKc // -- Begin function _Z14test_variable1Ih24custom_multiply_variableIhEEvPT_iS2_PKc
	.p2align	2
	.type	_Z14test_variable1Ih24custom_multiply_variableIhEEvPT_iS2_PKc,@function
_Z14test_variable1Ih24custom_multiply_variableIhEEvPT_iS2_PKc: // @_Z14test_variable1Ih24custom_multiply_variableIhEEvPT_iS2_PKc
	.cfi_startproc
// %bb.0:
	sub	sp, sp, #144
	.cfi_def_cfa_offset 144
	stp	x29, x30, [sp, #48]             // 16-byte Folded Spill
	stp	x28, x27, [sp, #64]             // 16-byte Folded Spill
	stp	x26, x25, [sp, #80]             // 16-byte Folded Spill
	stp	x24, x23, [sp, #96]             // 16-byte Folded Spill
	stp	x22, x21, [sp, #112]            // 16-byte Folded Spill
	stp	x20, x19, [sp, #128]            // 16-byte Folded Spill
	add	x29, sp, #48
	.cfi_def_cfa w29, 96
	.cfi_offset w19, -8
	.cfi_offset w20, -16
	.cfi_offset w21, -24
	.cfi_offset w22, -32
	.cfi_offset w23, -40
	.cfi_offset w24, -48
	.cfi_offset w25, -56
	.cfi_offset w26, -64
	.cfi_offset w27, -72
	.cfi_offset w28, -80
	.cfi_offset w30, -88
	.cfi_offset w29, -96
	.cfi_remember_state
	str	x3, [sp, #8]                    // 8-byte Folded Spill
	mov	w20, w2
	mov	w21, w1
	mov	x22, x0
	bl	clock
	adrp	x26, iterations
	adrp	x9, start_time
	ldr	w8, [x26, :lo12:iterations]
	str	x0, [x9, :lo12:start_time]
	cmp	w8, #1
	b.lt	.LBB29_23
// %bb.1:
	lsl	w27, w20, #6
	cmp	w21, #0
	b.le	.LBB29_19
// %bb.2:
	mov	w25, w21
	dup	v4.16b, w20
	mov	w28, wzr
	and	x23, x25, #0x7ffffff8
	and	x9, x25, #0x18
	add	x10, x22, #16
	and	x19, x25, #0x7fffffe0
	str	x9, [sp]                        // 8-byte Folded Spill
	neg	x9, x23
	adrp	x24, init_value
	stp	x10, x9, [sp, #16]              // 16-byte Folded Spill
	stur	q4, [x29, #-16]                 // 16-byte Folded Spill
	b	.LBB29_4
.LBB29_3:                               //   in Loop: Header=BB29_4 Depth=1
	add	w28, w28, #1
	cmp	w28, w8
	b.ge	.LBB29_23
.LBB29_4:                               // =>This Loop Header: Depth=1
                                        //     Child Loop BB29_9 Depth 2
                                        //     Child Loop BB29_13 Depth 2
                                        //     Child Loop BB29_16 Depth 2
	cmp	w21, #7
	b.hi	.LBB29_6
// %bb.5:                               //   in Loop: Header=BB29_4 Depth=1
	mov	x11, xzr
	mov	w9, wzr
	b	.LBB29_15
.LBB29_6:                               //   in Loop: Header=BB29_4 Depth=1
	cmp	w21, #32
	b.hs	.LBB29_8
// %bb.7:                               //   in Loop: Header=BB29_4 Depth=1
	mov	x10, xzr
	mov	w9, wzr
	b	.LBB29_12
.LBB29_8:                               // %.preheader2
                                        //   in Loop: Header=BB29_4 Depth=1
	movi	v0.2d, #0000000000000000
	movi	v1.2d, #0000000000000000
	ldr	x9, [sp, #16]                   // 8-byte Folded Reload
	mov	x10, x19
.LBB29_9:                               //   Parent Loop BB29_4 Depth=1
                                        // =>  This Inner Loop Header: Depth=2
	ldp	q2, q3, [x9, #-16]
	subs	x10, x10, #32
	add	x9, x9, #32
	mla	v0.16b, v2.16b, v4.16b
	mla	v1.16b, v3.16b, v4.16b
	b.ne	.LBB29_9
// %bb.10:                              //   in Loop: Header=BB29_4 Depth=1
	add	v0.16b, v1.16b, v0.16b
	cmp	x19, x25
	addv	b0, v0.16b
	fmov	w9, s0
	b.eq	.LBB29_17
// %bb.11:                              //   in Loop: Header=BB29_4 Depth=1
	ldr	x12, [sp]                       // 8-byte Folded Reload
	mov	x11, x19
	mov	x10, x19
	cbz	x12, .LBB29_15
.LBB29_12:                              //   in Loop: Header=BB29_4 Depth=1
	movi	v0.2d, #0000000000000000
	mov	v0.b[0], w9
	ldr	x9, [sp, #24]                   // 8-byte Folded Reload
	add	x9, x9, x10
	add	x10, x22, x10
.LBB29_13:                              //   Parent Loop BB29_4 Depth=1
                                        // =>  This Inner Loop Header: Depth=2
	ldr	d1, [x10], #8
	adds	x9, x9, #8
	mla	v0.8b, v1.8b, v4.8b
	b.ne	.LBB29_13
// %bb.14:                              //   in Loop: Header=BB29_4 Depth=1
	addv	b0, v0.8b
	cmp	x23, x25
	mov	x11, x23
	fmov	w9, s0
	b.eq	.LBB29_17
.LBB29_15:                              // %.preheader
                                        //   in Loop: Header=BB29_4 Depth=1
	sub	x10, x25, x11
	add	x11, x22, x11
.LBB29_16:                              //   Parent Loop BB29_4 Depth=1
                                        // =>  This Inner Loop Header: Depth=2
	ldrb	w12, [x11], #1
	subs	x10, x10, #1
	madd	w9, w12, w20, w9
	b.ne	.LBB29_16
.LBB29_17:                              //   in Loop: Header=BB29_4 Depth=1
	ldr	d0, [x24, :lo12:init_value]
	and	w9, w9, #0xff
	fcvtzs	w10, d0
	mul	w10, w27, w10
	cmp	w9, w10, uxtb
	b.eq	.LBB29_3
// %bb.18:                              //   in Loop: Header=BB29_4 Depth=1
	adrp	x8, current_test
	adrp	x0, .L.str.179
	add	x0, x0, :lo12:.L.str.179
	ldr	w1, [x8, :lo12:current_test]
	bl	printf
	ldur	q4, [x29, #-16]                 // 16-byte Folded Reload
	ldr	w8, [x26, :lo12:iterations]
	b	.LBB29_3
.LBB29_19:
	adrp	x21, init_value
	mov	w19, wzr
	adrp	x20, .L.str.179
	add	x20, x20, :lo12:.L.str.179
	ldr	d0, [x21, :lo12:init_value]
	b	.LBB29_21
.LBB29_20:                              //   in Loop: Header=BB29_21 Depth=1
	add	w19, w19, #1
	cmp	w19, w8
	b.ge	.LBB29_23
.LBB29_21:                              // =>This Inner Loop Header: Depth=1
	fcvtzs	w9, d0
	mul	w9, w27, w9
	tst	w9, #0xff
	b.eq	.LBB29_20
// %bb.22:                              //   in Loop: Header=BB29_21 Depth=1
	adrp	x8, current_test
	mov	x0, x20
	ldr	w1, [x8, :lo12:current_test]
	bl	printf
	ldr	d0, [x21, :lo12:init_value]
	ldr	w8, [x26, :lo12:iterations]
	b	.LBB29_20
.LBB29_23:
	bl	clock
	adrp	x22, results
	adrp	x21, allocated_results
	adrp	x9, start_time
	mov	x20, x0
	ldr	x0, [x22, :lo12:results]
	ldr	x19, [x9, :lo12:start_time]
	ldr	w9, [x21, :lo12:allocated_results]
	adrp	x8, end_time
	adrp	x23, current_test
	str	x20, [x8, :lo12:end_time]
	cbz	x0, .LBB29_25
// %bb.24:
	ldr	w8, [x23, :lo12:current_test]
	cmp	w8, w9
	b.lt	.LBB29_27
.LBB29_25:
	add	w8, w9, #10
	sbfiz	x1, x8, #4, #32
	str	w8, [x21, :lo12:allocated_results]
	bl	realloc
	str	x0, [x22, :lo12:results]
	cbz	x0, .LBB29_28
// %bb.26:
	ldr	w8, [x23, :lo12:current_test]
.LBB29_27:
	sub	x9, x20, x19
	ldr	x10, [sp, #8]                   // 8-byte Folded Reload
	scvtf	d0, x9
	mov	x9, #145685290680320            // =0x848000000000
	movk	x9, #16686, lsl #48
	fmov	d1, x9
	add	x9, x0, w8, sxtw #4
	add	w8, w8, #1
	str	x10, [x9, #8]
	fdiv	d0, d0, d1
	str	d0, [x9]
	str	w8, [x23, :lo12:current_test]
	.cfi_def_cfa wsp, 144
	ldp	x20, x19, [sp, #128]            // 16-byte Folded Reload
	ldp	x22, x21, [sp, #112]            // 16-byte Folded Reload
	ldp	x24, x23, [sp, #96]             // 16-byte Folded Reload
	ldp	x26, x25, [sp, #80]             // 16-byte Folded Reload
	ldp	x28, x27, [sp, #64]             // 16-byte Folded Reload
	ldp	x29, x30, [sp, #48]             // 16-byte Folded Reload
	add	sp, sp, #144
	.cfi_def_cfa_offset 0
	.cfi_restore w19
	.cfi_restore w20
	.cfi_restore w21
	.cfi_restore w22
	.cfi_restore w23
	.cfi_restore w24
	.cfi_restore w25
	.cfi_restore w26
	.cfi_restore w27
	.cfi_restore w28
	.cfi_restore w30
	.cfi_restore w29
	ret
.LBB29_28:
	.cfi_restore_state
	ldr	w1, [x21, :lo12:allocated_results]
	adrp	x0, .L.str
	add	x0, x0, :lo12:.L.str
	bl	printf
	mov	w0, #-1                         // =0xffffffff
	bl	exit
.Lfunc_end29:
	.size	_Z14test_variable1Ih24custom_multiply_variableIhEEvPT_iS2_PKc, .Lfunc_end29-_Z14test_variable1Ih24custom_multiply_variableIhEEvPT_iS2_PKc
	.cfi_endproc
                                        // -- End function
	.section	.text._Z14test_variable4Ih33custom_multiply_multiple_variableIhEEvPT_iS2_S2_S2_S2_PKc,"axG",@progbits,_Z14test_variable4Ih33custom_multiply_multiple_variableIhEEvPT_iS2_S2_S2_S2_PKc,comdat
	.weak	_Z14test_variable4Ih33custom_multiply_multiple_variableIhEEvPT_iS2_S2_S2_S2_PKc // -- Begin function _Z14test_variable4Ih33custom_multiply_multiple_variableIhEEvPT_iS2_S2_S2_S2_PKc
	.p2align	2
	.type	_Z14test_variable4Ih33custom_multiply_multiple_variableIhEEvPT_iS2_S2_S2_S2_PKc,@function
_Z14test_variable4Ih33custom_multiply_multiple_variableIhEEvPT_iS2_S2_S2_S2_PKc: // @_Z14test_variable4Ih33custom_multiply_multiple_variableIhEEvPT_iS2_S2_S2_S2_PKc
	.cfi_startproc
// %bb.0:
	sub	sp, sp, #144
	.cfi_def_cfa_offset 144
	stp	x29, x30, [sp, #48]             // 16-byte Folded Spill
	stp	x28, x27, [sp, #64]             // 16-byte Folded Spill
	stp	x26, x25, [sp, #80]             // 16-byte Folded Spill
	stp	x24, x23, [sp, #96]             // 16-byte Folded Spill
	stp	x22, x21, [sp, #112]            // 16-byte Folded Spill
	stp	x20, x19, [sp, #128]            // 16-byte Folded Spill
	add	x29, sp, #48
	.cfi_def_cfa w29, 96
	.cfi_offset w19, -8
	.cfi_offset w20, -16
	.cfi_offset w21, -24
	.cfi_offset w22, -32
	.cfi_offset w23, -40
	.cfi_offset w24, -48
	.cfi_offset w25, -56
	.cfi_offset w26, -64
	.cfi_offset w27, -72
	.cfi_offset w28, -80
	.cfi_offset w30, -88
	.cfi_offset w29, -96
	.cfi_remember_state
	str	x6, [sp, #8]                    // 8-byte Folded Spill
	mov	w24, w5
	mov	w25, w4
	mov	w23, w3
	mov	w22, w2
	mov	w20, w1
	mov	x21, x0
	bl	clock
	adrp	x28, iterations
	adrp	x9, start_time
	ldr	w8, [x28, :lo12:iterations]
	str	x0, [x9, :lo12:start_time]
	cmp	w8, #1
	b.lt	.LBB30_23
// %bb.1:
	mul	w9, w25, w24
	cmp	w20, #0
	mul	w10, w9, w22
	mul	w10, w10, w23
	lsl	w24, w10, #6
	b.le	.LBB30_19
// %bb.2:
	mul	w9, w9, w23
	mov	w27, w20
	mov	w25, wzr
	and	x19, x27, #0x7fffffe0
	add	x10, x21, #16
	adrp	x26, init_value
	mul	w23, w9, w22
	and	x22, x27, #0x7ffffff8
	and	x9, x27, #0x18
	str	x9, [sp]                        // 8-byte Folded Spill
	neg	x9, x22
	stp	x10, x9, [sp, #16]              // 16-byte Folded Spill
	dup	v4.16b, w23
	stur	q4, [x29, #-16]                 // 16-byte Folded Spill
	b	.LBB30_4
.LBB30_3:                               //   in Loop: Header=BB30_4 Depth=1
	add	w25, w25, #1
	cmp	w25, w8
	b.ge	.LBB30_23
.LBB30_4:                               // =>This Loop Header: Depth=1
                                        //     Child Loop BB30_9 Depth 2
                                        //     Child Loop BB30_13 Depth 2
                                        //     Child Loop BB30_16 Depth 2
	cmp	w20, #7
	b.hi	.LBB30_6
// %bb.5:                               //   in Loop: Header=BB30_4 Depth=1
	mov	x11, xzr
	mov	w9, wzr
	b	.LBB30_15
.LBB30_6:                               //   in Loop: Header=BB30_4 Depth=1
	cmp	w20, #32
	b.hs	.LBB30_8
// %bb.7:                               //   in Loop: Header=BB30_4 Depth=1
	mov	x10, xzr
	mov	w9, wzr
	b	.LBB30_12
.LBB30_8:                               // %.preheader2
                                        //   in Loop: Header=BB30_4 Depth=1
	movi	v0.2d, #0000000000000000
	movi	v1.2d, #0000000000000000
	ldr	x9, [sp, #16]                   // 8-byte Folded Reload
	mov	x10, x19
.LBB30_9:                               //   Parent Loop BB30_4 Depth=1
                                        // =>  This Inner Loop Header: Depth=2
	ldp	q2, q3, [x9, #-16]
	subs	x10, x10, #32
	add	x9, x9, #32
	mla	v0.16b, v4.16b, v2.16b
	mla	v1.16b, v4.16b, v3.16b
	b.ne	.LBB30_9
// %bb.10:                              //   in Loop: Header=BB30_4 Depth=1
	add	v0.16b, v1.16b, v0.16b
	cmp	x19, x27
	addv	b0, v0.16b
	fmov	w9, s0
	b.eq	.LBB30_17
// %bb.11:                              //   in Loop: Header=BB30_4 Depth=1
	ldr	x12, [sp]                       // 8-byte Folded Reload
	mov	x11, x19
	mov	x10, x19
	cbz	x12, .LBB30_15
.LBB30_12:                              //   in Loop: Header=BB30_4 Depth=1
	movi	v0.2d, #0000000000000000
	mov	v0.b[0], w9
	ldr	x9, [sp, #24]                   // 8-byte Folded Reload
	add	x9, x9, x10
	add	x10, x21, x10
.LBB30_13:                              //   Parent Loop BB30_4 Depth=1
                                        // =>  This Inner Loop Header: Depth=2
	ldr	d1, [x10], #8
	adds	x9, x9, #8
	mla	v0.8b, v4.8b, v1.8b
	b.ne	.LBB30_13
// %bb.14:                              //   in Loop: Header=BB30_4 Depth=1
	addv	b0, v0.8b
	cmp	x22, x27
	mov	x11, x22
	fmov	w9, s0
	b.eq	.LBB30_17
.LBB30_15:                              // %.preheader
